SF:/Users/adrien/Sources/Libraries/dash/src/ios.rs
FN:81,_RNCNvNtCs68ZmiMsM1DQ_4dash3ios19parse_workout_swift0B5_
FN:80,_RNvNtCs68ZmiMsM1DQ_4dash3ios19parse_workout_swift
FN:3,_RNvMs0_NtNtCs68ZmiMsM1DQ_4dash3ios3ffiNtB5_23___swift_bridge__Workout14into_rust_repr
FN:3,_RNvMs1_NtNtCs68ZmiMsM1DQ_4dash3ios3ffiNtB5_30___swift_bridge__Option_Workout14into_rust_repr
FN:3,_RNvMs1_NtNtCs68ZmiMsM1DQ_4dash3ios3ffiNtB5_30___swift_bridge__Option_Workout14from_rust_repr
FN:3,_RNvMs3_NtNtCs68ZmiMsM1DQ_4dash3ios3ffiNtB5_13IntervalBlock13into_ffi_repr
FN:3,_RNvMs4_NtNtCs68ZmiMsM1DQ_4dash3ios3ffiNtB5_29___swift_bridge__IntervalBlock14into_rust_repr
FN:3,_RNvMs5_NtNtCs68ZmiMsM1DQ_4dash3ios3ffiNtB5_36___swift_bridge__Option_IntervalBlock14into_rust_repr
FN:3,_RNvMs5_NtNtCs68ZmiMsM1DQ_4dash3ios3ffiNtB5_36___swift_bridge__Option_IntervalBlock14from_rust_repr
FN:3,_RNvMs7_NtNtCs68ZmiMsM1DQ_4dash3ios3ffiNtB5_12IntervalStep13into_ffi_repr
FN:3,_RNvMs8_NtNtCs68ZmiMsM1DQ_4dash3ios3ffiNtB5_28___swift_bridge__IntervalStep14into_rust_repr
FN:3,_RNvMs9_NtNtCs68ZmiMsM1DQ_4dash3ios3ffiNtB5_35___swift_bridge__Option_IntervalStep14into_rust_repr
FN:3,_RNvMs9_NtNtCs68ZmiMsM1DQ_4dash3ios3ffiNtB5_35___swift_bridge__Option_IntervalStep14from_rust_repr
FN:3,_RNvMsc_NtNtCs68ZmiMsM1DQ_4dash3ios3ffiNtB5_27___swift_bridge__WorkoutStep14into_rust_repr
FN:3,_RNvMsd_NtNtCs68ZmiMsM1DQ_4dash3ios3ffiNtB5_34___swift_bridge__Option_WorkoutStep14into_rust_repr
FN:3,_RNvMsg_NtNtCs68ZmiMsM1DQ_4dash3ios3ffiNtB5_20___swift_bridge__Pace14into_rust_repr
FN:3,_RNvMsh_NtNtCs68ZmiMsM1DQ_4dash3ios3ffiNtB5_27___swift_bridge__Option_Pace14into_rust_repr
FN:3,_RNvMsh_NtNtCs68ZmiMsM1DQ_4dash3ios3ffiNtB5_27___swift_bridge__Option_Pace14from_rust_repr
FN:3,_RNvMsk_NtNtCs68ZmiMsM1DQ_4dash3ios3ffiNtB5_20___swift_bridge__Goal14into_rust_repr
FN:3,_RNvMsl_NtNtCs68ZmiMsM1DQ_4dash3ios3ffiNtB5_27___swift_bridge__Option_Goal14into_rust_repr
FN:3,_RNvMsl_NtNtCs68ZmiMsM1DQ_4dash3ios3ffiNtB5_27___swift_bridge__Option_Goal14from_rust_repr
FN:3,_RNvMso_NtNtCs68ZmiMsM1DQ_4dash3ios3ffiNtB5_21___swift_bridge__Alert14into_rust_repr
FN:3,_RNvMsp_NtNtCs68ZmiMsM1DQ_4dash3ios3ffiNtB5_28___swift_bridge__Option_Alert14into_rust_repr
FN:3,_RNvMst_NtNtCs68ZmiMsM1DQ_4dash3ios3ffiNtB5_36___swift_bridge__Option_HeartRateZone14into_rust_repr
FN:3,_RNvMsx_NtNtCs68ZmiMsM1DQ_4dash3ios3ffiNtB5_33___swift_bridge__Option_LengthUnit14into_rust_repr
FN:3,_RNvMsB_NtNtCs68ZmiMsM1DQ_4dash3ios3ffiNtB5_31___swift_bridge__Option_TimeUnit14into_rust_repr
FN:87,_RNvXNtCs68ZmiMsM1DQ_4dash3iosNtNtB2_3ffi7WorkoutNtNtCs9f3LFPSIp77_4core3fmt5Debug3fmt
FN:97,_RNvXs_NtCs68ZmiMsM1DQ_4dash3iosNtNtB4_3ffi11WorkoutStepNtNtCs9f3LFPSIp77_4core3fmt5Debug3fmt
FN:107,_RNvXs0_NtCs68ZmiMsM1DQ_4dash3iosNtNtB5_3ffi13IntervalBlockNtNtCs9f3LFPSIp77_4core3fmt5Debug3fmt
FN:117,_RNvXs1_NtCs68ZmiMsM1DQ_4dash3iosNtNtB5_3ffi12IntervalStepNtNtCs9f3LFPSIp77_4core3fmt5Debug3fmt
FN:127,_RNvXs2_NtCs68ZmiMsM1DQ_4dash3iosNtNtB5_3ffi4GoalNtNtCs9f3LFPSIp77_4core3fmt5Debug3fmt
FN:140,_RNvXs3_NtCs68ZmiMsM1DQ_4dash3iosNtNtB5_3ffi5AlertNtNtCs9f3LFPSIp77_4core3fmt5Debug3fmt
FN:152,_RNvXs4_NtCs68ZmiMsM1DQ_4dash3iosNtNtB5_3ffi4PaceNtNtCs9f3LFPSIp77_4core3fmt5Debug3fmt
FN:175,_RNvXs6_NtCs68ZmiMsM1DQ_4dash3iosNtNtB5_3ffi4PaceNtNtCs9f3LFPSIp77_4core3cmp9PartialEq2eq
FN:3,_RNCNvNvNtNtCs68ZmiMsM1DQ_4dash3ios3ffi1__4__get0B9_
FN:3,_RNCNvNvNtNtCs68ZmiMsM1DQ_4dash3ios3ffi1__8__get_mut0B9_
FN:3,_RNCNvNvNtNtCs68ZmiMsM1DQ_4dash3ios3ffis_1__4__get0B9_
FN:3,_RNCNvNvNtNtCs68ZmiMsM1DQ_4dash3ios3ffis_1__8__get_mut0B9_
FN:3,_RNCNvNvNtNtCs68ZmiMsM1DQ_4dash3ios3ffis0_1__4__get0B9_
FN:3,_RNCNvNvNtNtCs68ZmiMsM1DQ_4dash3ios3ffis0_1__8__get_mut0B9_
FN:162,_RNvXs5_NtCs68ZmiMsM1DQ_4dash3iosNtNtB5_3ffi13HeartRateZoneNtNtCs9f3LFPSIp77_4core3cmp9PartialEq2eq
FN:181,_RNvXs7_NtCs68ZmiMsM1DQ_4dash3iosNtNtB5_3ffi10LengthUnitNtNtCs9f3LFPSIp77_4core3cmp9PartialEq2eq
FN:194,_RNvXs8_NtCs68ZmiMsM1DQ_4dash3iosNtNtB5_3ffi8TimeUnitNtNtCs9f3LFPSIp77_4core3cmp9PartialEq2eq
FN:3,_RNvMs_NtNtCs68ZmiMsM1DQ_4dash3ios3ffiNtB4_7Workout13into_ffi_repr
FN:3,_RNvMsb_NtNtCs68ZmiMsM1DQ_4dash3ios3ffiNtB5_11WorkoutStep13into_ffi_repr
FN:3,_RNvMsd_NtNtCs68ZmiMsM1DQ_4dash3ios3ffiNtB5_34___swift_bridge__Option_WorkoutStep14from_rust_repr
FN:3,_RNvMsf_NtNtCs68ZmiMsM1DQ_4dash3ios3ffiNtB5_4Pace13into_ffi_repr
FN:3,_RNvMsj_NtNtCs68ZmiMsM1DQ_4dash3ios3ffiNtB5_4Goal13into_ffi_repr
FN:3,_RNvMsn_NtNtCs68ZmiMsM1DQ_4dash3ios3ffiNtB5_5Alert13into_ffi_repr
FN:3,_RNvMsp_NtNtCs68ZmiMsM1DQ_4dash3ios3ffiNtB5_28___swift_bridge__Option_Alert14from_rust_repr
FN:3,_RNvMsr_NtNtCs68ZmiMsM1DQ_4dash3ios3ffiNtB5_13HeartRateZone13into_ffi_repr
FN:3,_RNvMss_NtNtCs68ZmiMsM1DQ_4dash3ios3ffiNtB5_29___swift_bridge__HeartRateZone14into_rust_repr
FN:3,_RNvMst_NtNtCs68ZmiMsM1DQ_4dash3ios3ffiNtB5_36___swift_bridge__Option_HeartRateZone14from_rust_repr
FN:3,__swift_bridge__$Vec_HeartRateZone$new
FN:3,__swift_bridge__$Vec_HeartRateZone$drop
FN:3,__swift_bridge__$Vec_HeartRateZone$len
FN:3,__swift_bridge__$Vec_HeartRateZone$get
FN:3,__swift_bridge__$Vec_HeartRateZone$get_mut
FN:3,__swift_bridge__$Vec_HeartRateZone$push
FN:3,__swift_bridge__$Vec_HeartRateZone$pop
FN:3,__swift_bridge__$Vec_HeartRateZone$as_ptr
FN:3,__swift_bridge__$HeartRateZone$Debug
FN:3,_RNvMsv_NtNtCs68ZmiMsM1DQ_4dash3ios3ffiNtB5_10LengthUnit13into_ffi_repr
FN:3,_RNvMsw_NtNtCs68ZmiMsM1DQ_4dash3ios3ffiNtB5_26___swift_bridge__LengthUnit14into_rust_repr
FN:3,_RNvMsx_NtNtCs68ZmiMsM1DQ_4dash3ios3ffiNtB5_33___swift_bridge__Option_LengthUnit14from_rust_repr
FN:3,__swift_bridge__$Vec_LengthUnit$new
FN:3,__swift_bridge__$Vec_LengthUnit$drop
FN:3,__swift_bridge__$Vec_LengthUnit$len
FN:3,__swift_bridge__$Vec_LengthUnit$get
FN:3,__swift_bridge__$Vec_LengthUnit$get_mut
FN:3,__swift_bridge__$Vec_LengthUnit$push
FN:3,__swift_bridge__$Vec_LengthUnit$pop
FN:3,__swift_bridge__$Vec_LengthUnit$as_ptr
FN:3,__swift_bridge__$LengthUnit$Debug
FN:3,_RNvMsz_NtNtCs68ZmiMsM1DQ_4dash3ios3ffiNtB5_8TimeUnit13into_ffi_repr
FN:3,_RNvMsA_NtNtCs68ZmiMsM1DQ_4dash3ios3ffiNtB5_24___swift_bridge__TimeUnit14into_rust_repr
FN:3,_RNvMsB_NtNtCs68ZmiMsM1DQ_4dash3ios3ffiNtB5_31___swift_bridge__Option_TimeUnit14from_rust_repr
FN:3,__swift_bridge__$Vec_TimeUnit$new
FN:3,__swift_bridge__$Vec_TimeUnit$drop
FN:3,__swift_bridge__$Vec_TimeUnit$len
FN:3,__swift_bridge__$Vec_TimeUnit$get
FN:3,__swift_bridge__$Vec_TimeUnit$get_mut
FN:3,__swift_bridge__$Vec_TimeUnit$push
FN:3,__swift_bridge__$Vec_TimeUnit$pop
FN:3,__swift_bridge__$Vec_TimeUnit$as_ptr
FN:3,__swift_bridge__$TimeUnit$Debug
FN:3,__swift_bridge__$parse_workout_swift
FNDA:0,_RNCNvNtCs68ZmiMsM1DQ_4dash3ios19parse_workout_swift0B5_
FNDA:0,_RNvNtCs68ZmiMsM1DQ_4dash3ios19parse_workout_swift
FNDA:0,_RNvMs0_NtNtCs68ZmiMsM1DQ_4dash3ios3ffiNtB5_23___swift_bridge__Workout14into_rust_repr
FNDA:0,_RNvMs1_NtNtCs68ZmiMsM1DQ_4dash3ios3ffiNtB5_30___swift_bridge__Option_Workout14into_rust_repr
FNDA:0,_RNvMs1_NtNtCs68ZmiMsM1DQ_4dash3ios3ffiNtB5_30___swift_bridge__Option_Workout14from_rust_repr
FNDA:0,_RNvMs3_NtNtCs68ZmiMsM1DQ_4dash3ios3ffiNtB5_13IntervalBlock13into_ffi_repr
FNDA:0,_RNvMs4_NtNtCs68ZmiMsM1DQ_4dash3ios3ffiNtB5_29___swift_bridge__IntervalBlock14into_rust_repr
FNDA:0,_RNvMs5_NtNtCs68ZmiMsM1DQ_4dash3ios3ffiNtB5_36___swift_bridge__Option_IntervalBlock14into_rust_repr
FNDA:0,_RNvMs5_NtNtCs68ZmiMsM1DQ_4dash3ios3ffiNtB5_36___swift_bridge__Option_IntervalBlock14from_rust_repr
FNDA:0,_RNvMs7_NtNtCs68ZmiMsM1DQ_4dash3ios3ffiNtB5_12IntervalStep13into_ffi_repr
FNDA:0,_RNvMs8_NtNtCs68ZmiMsM1DQ_4dash3ios3ffiNtB5_28___swift_bridge__IntervalStep14into_rust_repr
FNDA:0,_RNvMs9_NtNtCs68ZmiMsM1DQ_4dash3ios3ffiNtB5_35___swift_bridge__Option_IntervalStep14into_rust_repr
FNDA:0,_RNvMs9_NtNtCs68ZmiMsM1DQ_4dash3ios3ffiNtB5_35___swift_bridge__Option_IntervalStep14from_rust_repr
FNDA:0,_RNvMsc_NtNtCs68ZmiMsM1DQ_4dash3ios3ffiNtB5_27___swift_bridge__WorkoutStep14into_rust_repr
FNDA:0,_RNvMsd_NtNtCs68ZmiMsM1DQ_4dash3ios3ffiNtB5_34___swift_bridge__Option_WorkoutStep14into_rust_repr
FNDA:0,_RNvMsg_NtNtCs68ZmiMsM1DQ_4dash3ios3ffiNtB5_20___swift_bridge__Pace14into_rust_repr
FNDA:0,_RNvMsh_NtNtCs68ZmiMsM1DQ_4dash3ios3ffiNtB5_27___swift_bridge__Option_Pace14into_rust_repr
FNDA:0,_RNvMsh_NtNtCs68ZmiMsM1DQ_4dash3ios3ffiNtB5_27___swift_bridge__Option_Pace14from_rust_repr
FNDA:0,_RNvMsk_NtNtCs68ZmiMsM1DQ_4dash3ios3ffiNtB5_20___swift_bridge__Goal14into_rust_repr
FNDA:0,_RNvMsl_NtNtCs68ZmiMsM1DQ_4dash3ios3ffiNtB5_27___swift_bridge__Option_Goal14into_rust_repr
FNDA:0,_RNvMsl_NtNtCs68ZmiMsM1DQ_4dash3ios3ffiNtB5_27___swift_bridge__Option_Goal14from_rust_repr
FNDA:0,_RNvMso_NtNtCs68ZmiMsM1DQ_4dash3ios3ffiNtB5_21___swift_bridge__Alert14into_rust_repr
FNDA:0,_RNvMsp_NtNtCs68ZmiMsM1DQ_4dash3ios3ffiNtB5_28___swift_bridge__Option_Alert14into_rust_repr
FNDA:0,_RNvMst_NtNtCs68ZmiMsM1DQ_4dash3ios3ffiNtB5_36___swift_bridge__Option_HeartRateZone14into_rust_repr
FNDA:0,_RNvMsx_NtNtCs68ZmiMsM1DQ_4dash3ios3ffiNtB5_33___swift_bridge__Option_LengthUnit14into_rust_repr
FNDA:0,_RNvMsB_NtNtCs68ZmiMsM1DQ_4dash3ios3ffiNtB5_31___swift_bridge__Option_TimeUnit14into_rust_repr
FNDA:0,_RNvXNtCs68ZmiMsM1DQ_4dash3iosNtNtB2_3ffi7WorkoutNtNtCs9f3LFPSIp77_4core3fmt5Debug3fmt
FNDA:0,_RNvXs_NtCs68ZmiMsM1DQ_4dash3iosNtNtB4_3ffi11WorkoutStepNtNtCs9f3LFPSIp77_4core3fmt5Debug3fmt
FNDA:0,_RNvXs0_NtCs68ZmiMsM1DQ_4dash3iosNtNtB5_3ffi13IntervalBlockNtNtCs9f3LFPSIp77_4core3fmt5Debug3fmt
FNDA:0,_RNvXs1_NtCs68ZmiMsM1DQ_4dash3iosNtNtB5_3ffi12IntervalStepNtNtCs9f3LFPSIp77_4core3fmt5Debug3fmt
FNDA:0,_RNvXs2_NtCs68ZmiMsM1DQ_4dash3iosNtNtB5_3ffi4GoalNtNtCs9f3LFPSIp77_4core3fmt5Debug3fmt
FNDA:0,_RNvXs3_NtCs68ZmiMsM1DQ_4dash3iosNtNtB5_3ffi5AlertNtNtCs9f3LFPSIp77_4core3fmt5Debug3fmt
FNDA:0,_RNvXs4_NtCs68ZmiMsM1DQ_4dash3iosNtNtB5_3ffi4PaceNtNtCs9f3LFPSIp77_4core3fmt5Debug3fmt
FNDA:0,_RNvXs6_NtCs68ZmiMsM1DQ_4dash3iosNtNtB5_3ffi4PaceNtNtCs9f3LFPSIp77_4core3cmp9PartialEq2eq
FNDA:0,_RNCNvNvNtNtCs68ZmiMsM1DQ_4dash3ios3ffi1__4__get0B9_
FNDA:0,_RNCNvNvNtNtCs68ZmiMsM1DQ_4dash3ios3ffi1__8__get_mut0B9_
FNDA:0,_RNCNvNvNtNtCs68ZmiMsM1DQ_4dash3ios3ffis_1__4__get0B9_
FNDA:0,_RNCNvNvNtNtCs68ZmiMsM1DQ_4dash3ios3ffis_1__8__get_mut0B9_
FNDA:0,_RNCNvNvNtNtCs68ZmiMsM1DQ_4dash3ios3ffis0_1__4__get0B9_
FNDA:0,_RNCNvNvNtNtCs68ZmiMsM1DQ_4dash3ios3ffis0_1__8__get_mut0B9_
FNDA:5,_RNvXs5_NtCs68ZmiMsM1DQ_4dash3iosNtNtB5_3ffi13HeartRateZoneNtNtCs9f3LFPSIp77_4core3cmp9PartialEq2eq
FNDA:5,_RNvXs7_NtCs68ZmiMsM1DQ_4dash3iosNtNtB5_3ffi10LengthUnitNtNtCs9f3LFPSIp77_4core3cmp9PartialEq2eq
FNDA:3,_RNvXs8_NtCs68ZmiMsM1DQ_4dash3iosNtNtB5_3ffi8TimeUnitNtNtCs9f3LFPSIp77_4core3cmp9PartialEq2eq
FNDA:0,_RNvMs_NtNtCs68ZmiMsM1DQ_4dash3ios3ffiNtB4_7Workout13into_ffi_repr
FNDA:0,_RNvMsb_NtNtCs68ZmiMsM1DQ_4dash3ios3ffiNtB5_11WorkoutStep13into_ffi_repr
FNDA:0,_RNvMsd_NtNtCs68ZmiMsM1DQ_4dash3ios3ffiNtB5_34___swift_bridge__Option_WorkoutStep14from_rust_repr
FNDA:0,_RNvMsf_NtNtCs68ZmiMsM1DQ_4dash3ios3ffiNtB5_4Pace13into_ffi_repr
FNDA:0,_RNvMsj_NtNtCs68ZmiMsM1DQ_4dash3ios3ffiNtB5_4Goal13into_ffi_repr
FNDA:0,_RNvMsn_NtNtCs68ZmiMsM1DQ_4dash3ios3ffiNtB5_5Alert13into_ffi_repr
FNDA:0,_RNvMsp_NtNtCs68ZmiMsM1DQ_4dash3ios3ffiNtB5_28___swift_bridge__Option_Alert14from_rust_repr
FNDA:0,_RNvMsr_NtNtCs68ZmiMsM1DQ_4dash3ios3ffiNtB5_13HeartRateZone13into_ffi_repr
FNDA:0,_RNvMss_NtNtCs68ZmiMsM1DQ_4dash3ios3ffiNtB5_29___swift_bridge__HeartRateZone14into_rust_repr
FNDA:0,_RNvMst_NtNtCs68ZmiMsM1DQ_4dash3ios3ffiNtB5_36___swift_bridge__Option_HeartRateZone14from_rust_repr
FNDA:0,__swift_bridge__$Vec_HeartRateZone$new
FNDA:0,__swift_bridge__$Vec_HeartRateZone$drop
FNDA:0,__swift_bridge__$Vec_HeartRateZone$len
FNDA:0,__swift_bridge__$Vec_HeartRateZone$get
FNDA:0,__swift_bridge__$Vec_HeartRateZone$get_mut
FNDA:0,__swift_bridge__$Vec_HeartRateZone$push
FNDA:0,__swift_bridge__$Vec_HeartRateZone$pop
FNDA:0,__swift_bridge__$Vec_HeartRateZone$as_ptr
FNDA:0,__swift_bridge__$HeartRateZone$Debug
FNDA:0,_RNvMsv_NtNtCs68ZmiMsM1DQ_4dash3ios3ffiNtB5_10LengthUnit13into_ffi_repr
FNDA:0,_RNvMsw_NtNtCs68ZmiMsM1DQ_4dash3ios3ffiNtB5_26___swift_bridge__LengthUnit14into_rust_repr
FNDA:0,_RNvMsx_NtNtCs68ZmiMsM1DQ_4dash3ios3ffiNtB5_33___swift_bridge__Option_LengthUnit14from_rust_repr
FNDA:0,__swift_bridge__$Vec_LengthUnit$new
FNDA:0,__swift_bridge__$Vec_LengthUnit$drop
FNDA:0,__swift_bridge__$Vec_LengthUnit$len
FNDA:0,__swift_bridge__$Vec_LengthUnit$get
FNDA:0,__swift_bridge__$Vec_LengthUnit$get_mut
FNDA:0,__swift_bridge__$Vec_LengthUnit$push
FNDA:0,__swift_bridge__$Vec_LengthUnit$pop
FNDA:0,__swift_bridge__$Vec_LengthUnit$as_ptr
FNDA:0,__swift_bridge__$LengthUnit$Debug
FNDA:0,_RNvMsz_NtNtCs68ZmiMsM1DQ_4dash3ios3ffiNtB5_8TimeUnit13into_ffi_repr
FNDA:0,_RNvMsA_NtNtCs68ZmiMsM1DQ_4dash3ios3ffiNtB5_24___swift_bridge__TimeUnit14into_rust_repr
FNDA:0,_RNvMsB_NtNtCs68ZmiMsM1DQ_4dash3ios3ffiNtB5_31___swift_bridge__Option_TimeUnit14from_rust_repr
FNDA:0,__swift_bridge__$Vec_TimeUnit$new
FNDA:0,__swift_bridge__$Vec_TimeUnit$drop
FNDA:0,__swift_bridge__$Vec_TimeUnit$len
FNDA:0,__swift_bridge__$Vec_TimeUnit$get
FNDA:0,__swift_bridge__$Vec_TimeUnit$get_mut
FNDA:0,__swift_bridge__$Vec_TimeUnit$push
FNDA:0,__swift_bridge__$Vec_TimeUnit$pop
FNDA:0,__swift_bridge__$Vec_TimeUnit$as_ptr
FNDA:0,__swift_bridge__$TimeUnit$Debug
FNDA:0,__swift_bridge__$parse_workout_swift
FNF:15
FNH:3
DA:3,0
DA:80,0
DA:81,0
DA:82,0
DA:87,0
DA:88,0
DA:89,0
DA:90,0
DA:91,0
DA:92,0
DA:93,0
DA:97,0
DA:98,0
DA:99,0
DA:100,0
DA:101,0
DA:102,0
DA:103,0
DA:107,0
DA:108,0
DA:109,0
DA:110,0
DA:111,0
DA:112,0
DA:113,0
DA:117,0
DA:118,0
DA:119,0
DA:120,0
DA:121,0
DA:122,0
DA:123,0
DA:127,0
DA:128,0
DA:129,0
DA:130,0
DA:132,0
DA:133,0
DA:136,0
DA:140,0
DA:141,0
DA:142,0
DA:143,0
DA:144,0
DA:145,0
DA:148,0
DA:152,0
DA:153,0
DA:154,0
DA:155,0
DA:156,0
DA:157,0
DA:158,0
DA:162,5
DA:163,5
DA:164,1
DA:165,1
DA:166,1
DA:167,1
DA:168,1
DA:169,0
DA:171,5
DA:175,0
DA:176,0
DA:177,0
DA:181,5
DA:182,5
DA:183,1
DA:184,1
DA:185,1
DA:186,1
DA:187,1
DA:188,0
DA:190,5
DA:194,3
DA:195,3
DA:196,1
DA:197,1
DA:198,1
DA:199,0
DA:201,3
BRF:0
BRH:0
LF:83
LH:22
end_of_record
SF:/Users/adrien/Sources/Libraries/dash/src/lib.rs
FN:16,_RNvMCs68ZmiMsM1DQ_4dashNtB2_4Rule9all_rules
FN:20,_RNvCs68ZmiMsM1DQ_4dash13parse_workout
FN:52,_RNvCs68ZmiMsM1DQ_4dash18parse_workout_step
FN:95,_RNvCs68ZmiMsM1DQ_4dash21parse_interval_blocks
FN:110,_RNvCs68ZmiMsM1DQ_4dash20parse_interval_block
FN:131,_RNvCs68ZmiMsM1DQ_4dash19parse_interval_step
FN:141,_RNvCs68ZmiMsM1DQ_4dash14parse_time_str
FN:149,_RNvCs68ZmiMsM1DQ_4dash16parse_pace_range
FN:166,_RNvCs68ZmiMsM1DQ_4dash10parse_pace
FN:179,_RNvCs68ZmiMsM1DQ_4dash17parse_length_unit
FN:190,_RNvCs68ZmiMsM1DQ_4dash15parse_time_unit
FN:199,_RNvCs68ZmiMsM1DQ_4dash21parse_heart_rate_zone
FN:16,_RNvXs_Cs68ZmiMsM1DQ_4dashNtB4_10DashParserINtNtCsgunZfVqxqQ3_4pest6parser6ParserNtB4_4RuleE5parse
FN:16,_RNvNtNtNvXs_Cs68ZmiMsM1DQ_4dashNtBa_10DashParserINtNtCsgunZfVqxqQ3_4pest6parser6ParserNtBa_4RuleE5parse5rules6hidden4skipBa_
FN:16,_RNvNtNtNvXs_Cs68ZmiMsM1DQ_4dashNtBa_10DashParserINtNtCsgunZfVqxqQ3_4pest6parser6ParserNtBa_4RuleE5parse5rules7visible10WHITESPACEBa_
FN:16,_RNvNtNtNvXs_Cs68ZmiMsM1DQ_4dashNtBa_10DashParserINtNtCsgunZfVqxqQ3_4pest6parser6ParserNtBa_4RuleE5parse5rules7visible7workoutBa_
FN:16,_RNvNtNtNvXs_Cs68ZmiMsM1DQ_4dashNtBa_10DashParserINtNtCsgunZfVqxqQ3_4pest6parser6ParserNtBa_4RuleE5parse5rules7visible11warmup_stepBa_
FN:16,_RNvNtNtNvXs_Cs68ZmiMsM1DQ_4dashNtBa_10DashParserINtNtCsgunZfVqxqQ3_4pest6parser6ParserNtBa_4RuleE5parse5rules7visible13cooldown_stepBa_
FN:16,_RNvNtNtNvXs_Cs68ZmiMsM1DQ_4dashNtBa_10DashParserINtNtCsgunZfVqxqQ3_4pest6parser6ParserNtBa_4RuleE5parse5rules7visible15interval_blocksBa_
FN:16,_RNvNtNtNvXs_Cs68ZmiMsM1DQ_4dashNtBa_10DashParserINtNtCsgunZfVqxqQ3_4pest6parser6ParserNtBa_4RuleE5parse5rules7visible14interval_blockBa_
FN:16,_RNvNtNtNvXs_Cs68ZmiMsM1DQ_4dashNtBa_10DashParserINtNtCsgunZfVqxqQ3_4pest6parser6ParserNtBa_4RuleE5parse5rules7visible13interval_repsBa_
FN:16,_RNvNtNtNvXs_Cs68ZmiMsM1DQ_4dashNtBa_10DashParserINtNtCsgunZfVqxqQ3_4pest6parser6ParserNtBa_4RuleE5parse5rules7visible13interval_stepBa_
FN:16,_RNvNtNtNvXs_Cs68ZmiMsM1DQ_4dashNtBa_10DashParserINtNtCsgunZfVqxqQ3_4pest6parser6ParserNtBa_4RuleE5parse5rules7visible8recoveryBa_
FN:16,_RNvNtNtNvXs_Cs68ZmiMsM1DQ_4dashNtBa_10DashParserINtNtCsgunZfVqxqQ3_4pest6parser6ParserNtBa_4RuleE5parse5rules7visible12workout_stepBa_
FN:16,_RNvNtNtNvXs_Cs68ZmiMsM1DQ_4dashNtBa_10DashParserINtNtCsgunZfVqxqQ3_4pest6parser6ParserNtBa_4RuleE5parse5rules7visible5alertBa_
FN:16,_RNvNtNtNvXs_Cs68ZmiMsM1DQ_4dashNtBa_10DashParserINtNtCsgunZfVqxqQ3_4pest6parser6ParserNtBa_4RuleE5parse5rules7visible16heart_rate_alertBa_
FN:16,_RNvNtNtNvXs_Cs68ZmiMsM1DQ_4dashNtBa_10DashParserINtNtCsgunZfVqxqQ3_4pest6parser6ParserNtBa_4RuleE5parse5rules7visible2z1Ba_
FN:16,_RNvNtNtNvXs_Cs68ZmiMsM1DQ_4dashNtBa_10DashParserINtNtCsgunZfVqxqQ3_4pest6parser6ParserNtBa_4RuleE5parse5rules7visible2z2Ba_
FN:16,_RNvNtNtNvXs_Cs68ZmiMsM1DQ_4dashNtBa_10DashParserINtNtCsgunZfVqxqQ3_4pest6parser6ParserNtBa_4RuleE5parse5rules7visible2z3Ba_
FN:16,_RNvNtNtNvXs_Cs68ZmiMsM1DQ_4dashNtBa_10DashParserINtNtCsgunZfVqxqQ3_4pest6parser6ParserNtBa_4RuleE5parse5rules7visible2z4Ba_
FN:16,_RNvNtNtNvXs_Cs68ZmiMsM1DQ_4dashNtBa_10DashParserINtNtCsgunZfVqxqQ3_4pest6parser6ParserNtBa_4RuleE5parse5rules7visible2z5Ba_
FN:16,_RNvNtNtNvXs_Cs68ZmiMsM1DQ_4dashNtBa_10DashParserINtNtCsgunZfVqxqQ3_4pest6parser6ParserNtBa_4RuleE5parse5rules7visible20pace_threshold_alertBa_
FN:16,_RNvNtNtNvXs_Cs68ZmiMsM1DQ_4dashNtBa_10DashParserINtNtCsgunZfVqxqQ3_4pest6parser6ParserNtBa_4RuleE5parse5rules7visible16pace_range_alertBa_
FN:16,_RNvNtNtNvXs_Cs68ZmiMsM1DQ_4dashNtBa_10DashParserINtNtCsgunZfVqxqQ3_4pest6parser6ParserNtBa_4RuleE5parse5rules7visible4paceBa_
FN:16,_RNvNtNtNvXs_Cs68ZmiMsM1DQ_4dashNtBa_10DashParserINtNtCsgunZfVqxqQ3_4pest6parser6ParserNtBa_4RuleE5parse5rules7visible9pace_timeBa_
FN:16,_RNvNtNtNvXs_Cs68ZmiMsM1DQ_4dashNtBa_10DashParserINtNtCsgunZfVqxqQ3_4pest6parser6ParserNtBa_4RuleE5parse5rules7visible4goalBa_
FN:16,_RNvNtNtNvXs_Cs68ZmiMsM1DQ_4dashNtBa_10DashParserINtNtCsgunZfVqxqQ3_4pest6parser6ParserNtBa_4RuleE5parse5rules7visible13distance_goalBa_
FN:16,_RNvNtNtNvXs_Cs68ZmiMsM1DQ_4dashNtBa_10DashParserINtNtCsgunZfVqxqQ3_4pest6parser6ParserNtBa_4RuleE5parse5rules7visible13duration_goalBa_
FN:16,_RNvNtNtNvXs_Cs68ZmiMsM1DQ_4dashNtBa_10DashParserINtNtCsgunZfVqxqQ3_4pest6parser6ParserNtBa_4RuleE5parse5rules7visible11unit_lengthBa_
FN:16,_RNvNtNtNvXs_Cs68ZmiMsM1DQ_4dashNtBa_10DashParserINtNtCsgunZfVqxqQ3_4pest6parser6ParserNtBa_4RuleE5parse5rules7visible5milesBa_
FN:16,_RNvNtNtNvXs_Cs68ZmiMsM1DQ_4dashNtBa_10DashParserINtNtCsgunZfVqxqQ3_4pest6parser6ParserNtBa_4RuleE5parse5rules7visible5yardsBa_
FN:16,_RNvNtNtNvXs_Cs68ZmiMsM1DQ_4dashNtBa_10DashParserINtNtCsgunZfVqxqQ3_4pest6parser6ParserNtBa_4RuleE5parse5rules7visible4feetBa_
FN:16,_RNvNtNtNvXs_Cs68ZmiMsM1DQ_4dashNtBa_10DashParserINtNtCsgunZfVqxqQ3_4pest6parser6ParserNtBa_4RuleE5parse5rules7visible5meterBa_
FN:16,_RNvNtNtNvXs_Cs68ZmiMsM1DQ_4dashNtBa_10DashParserINtNtCsgunZfVqxqQ3_4pest6parser6ParserNtBa_4RuleE5parse5rules7visible9kilometerBa_
FN:16,_RNvNtNtNvXs_Cs68ZmiMsM1DQ_4dashNtBa_10DashParserINtNtCsgunZfVqxqQ3_4pest6parser6ParserNtBa_4RuleE5parse5rules7visible13unit_durationBa_
FN:16,_RNvNtNtNvXs_Cs68ZmiMsM1DQ_4dashNtBa_10DashParserINtNtCsgunZfVqxqQ3_4pest6parser6ParserNtBa_4RuleE5parse5rules7visible7secondsBa_
FN:16,_RNvNtNtNvXs_Cs68ZmiMsM1DQ_4dashNtBa_10DashParserINtNtCsgunZfVqxqQ3_4pest6parser6ParserNtBa_4RuleE5parse5rules7visible7minutesBa_
FN:16,_RNvNtNtNvXs_Cs68ZmiMsM1DQ_4dashNtBa_10DashParserINtNtCsgunZfVqxqQ3_4pest6parser6ParserNtBa_4RuleE5parse5rules7visible5hoursBa_
FN:16,_RNvNtNtNvXs_Cs68ZmiMsM1DQ_4dashNtBa_10DashParserINtNtCsgunZfVqxqQ3_4pest6parser6ParserNtBa_4RuleE5parse5rules7visible6numberBa_
FN:16,_RNvNtNtNvXs_Cs68ZmiMsM1DQ_4dashNtBa_10DashParserINtNtCsgunZfVqxqQ3_4pest6parser6ParserNtBa_4RuleE5parse5rules7visible3EOIBa_
FN:16,_RNvNtNtNvXs_Cs68ZmiMsM1DQ_4dashNtBa_10DashParserINtNtCsgunZfVqxqQ3_4pest6parser6ParserNtBa_4RuleE5parse5rules7visible3SOIBa_
FN:16,_RNvNtNtNvXs_Cs68ZmiMsM1DQ_4dashNtBa_10DashParserINtNtCsgunZfVqxqQ3_4pest6parser6ParserNtBa_4RuleE5parse5rules7visible11ASCII_DIGITBa_
FN:16,_RNCNvNtNtNvXs_Cs68ZmiMsM1DQ_4dashNtBc_10DashParserINtNtCsgunZfVqxqQ3_4pest6parser6ParserNtBc_4RuleE5parse5rules6hidden4skip0Bc_
FN:16,_RNCNvNtNtNvXs_Cs68ZmiMsM1DQ_4dashNtBc_10DashParserINtNtCsgunZfVqxqQ3_4pest6parser6ParserNtBc_4RuleE5parse5rules7visible10WHITESPACE0Bc_
FN:16,_RNCNCNvNtNtNvXs_Cs68ZmiMsM1DQ_4dashNtBe_10DashParserINtNtCsgunZfVqxqQ3_4pest6parser6ParserNtBe_4RuleE5parse5rules7visible10WHITESPACE00Be_
FN:16,_RNCNCNvNtNtNvXs_Cs68ZmiMsM1DQ_4dashNtBe_10DashParserINtNtCsgunZfVqxqQ3_4pest6parser6ParserNtBe_4RuleE5parse5rules7visible10WHITESPACE0s_0Be_
FN:16,_RNCNvNtNtNvXs_Cs68ZmiMsM1DQ_4dashNtBc_10DashParserINtNtCsgunZfVqxqQ3_4pest6parser6ParserNtBc_4RuleE5parse5rules7visible7workout0Bc_
FN:16,_RNCNCNvNtNtNvXs_Cs68ZmiMsM1DQ_4dashNtBe_10DashParserINtNtCsgunZfVqxqQ3_4pest6parser6ParserNtBe_4RuleE5parse5rules7visible7workout00Be_
FN:16,_RNCNCNCNvNtNtNvXs_Cs68ZmiMsM1DQ_4dashNtBg_10DashParserINtNtCsgunZfVqxqQ3_4pest6parser6ParserNtBg_4RuleE5parse5rules7visible7workout000Bg_
FN:16,_RNCNCNCNvNtNtNvXs_Cs68ZmiMsM1DQ_4dashNtBg_10DashParserINtNtCsgunZfVqxqQ3_4pest6parser6ParserNtBg_4RuleE5parse5rules7visible7workout00s_0Bg_
FN:16,_RNCNCNCNCNvNtNtNvXs_Cs68ZmiMsM1DQ_4dashNtBi_10DashParserINtNtCsgunZfVqxqQ3_4pest6parser6ParserNtBi_4RuleE5parse5rules7visible7workout00s_00Bi_
FN:16,_RNCNCNCNCNCNvNtNtNvXs_Cs68ZmiMsM1DQ_4dashNtBk_10DashParserINtNtCsgunZfVqxqQ3_4pest6parser6ParserNtBk_4RuleE5parse5rules7visible7workout00s_000Bk_
FN:16,_RNCNCNCNCNCNCNvNtNtNvXs_Cs68ZmiMsM1DQ_4dashNtBm_10DashParserINtNtCsgunZfVqxqQ3_4pest6parser6ParserNtBm_4RuleE5parse5rules7visible7workout00s_0000Bm_
FN:16,_RNCNCNCNCNCNCNvNtNtNvXs_Cs68ZmiMsM1DQ_4dashNtBm_10DashParserINtNtCsgunZfVqxqQ3_4pest6parser6ParserNtBm_4RuleE5parse5rules7visible7workout00s_000s_0Bm_
FN:16,_RNCNCNCNvNtNtNvXs_Cs68ZmiMsM1DQ_4dashNtBg_10DashParserINtNtCsgunZfVqxqQ3_4pest6parser6ParserNtBg_4RuleE5parse5rules7visible7workout00s0_0Bg_
FN:16,_RNCNCNCNvNtNtNvXs_Cs68ZmiMsM1DQ_4dashNtBg_10DashParserINtNtCsgunZfVqxqQ3_4pest6parser6ParserNtBg_4RuleE5parse5rules7visible7workout00s1_0Bg_
FN:16,_RNCNCNCNvNtNtNvXs_Cs68ZmiMsM1DQ_4dashNtBg_10DashParserINtNtCsgunZfVqxqQ3_4pest6parser6ParserNtBg_4RuleE5parse5rules7visible7workout00s2_0Bg_
FN:16,_RNCNCNCNvNtNtNvXs_Cs68ZmiMsM1DQ_4dashNtBg_10DashParserINtNtCsgunZfVqxqQ3_4pest6parser6ParserNtBg_4RuleE5parse5rules7visible7workout00s3_0Bg_
FN:16,_RNCNCNCNCNvNtNtNvXs_Cs68ZmiMsM1DQ_4dashNtBi_10DashParserINtNtCsgunZfVqxqQ3_4pest6parser6ParserNtBi_4RuleE5parse5rules7visible7workout00s3_00Bi_
FN:16,_RNCNCNCNCNCNvNtNtNvXs_Cs68ZmiMsM1DQ_4dashNtBk_10DashParserINtNtCsgunZfVqxqQ3_4pest6parser6ParserNtBk_4RuleE5parse5rules7visible7workout00s3_000Bk_
FN:16,_RNCNCNCNCNCNCNvNtNtNvXs_Cs68ZmiMsM1DQ_4dashNtBm_10DashParserINtNtCsgunZfVqxqQ3_4pest6parser6ParserNtBm_4RuleE5parse5rules7visible7workout00s3_0000Bm_
FN:16,_RNCNCNCNCNCNCNvNtNtNvXs_Cs68ZmiMsM1DQ_4dashNtBm_10DashParserINtNtCsgunZfVqxqQ3_4pest6parser6ParserNtBm_4RuleE5parse5rules7visible7workout00s3_000s_0Bm_
FN:16,_RNCNCNCNvNtNtNvXs_Cs68ZmiMsM1DQ_4dashNtBg_10DashParserINtNtCsgunZfVqxqQ3_4pest6parser6ParserNtBg_4RuleE5parse5rules7visible7workout00s4_0Bg_
FN:16,_RNCNCNCNvNtNtNvXs_Cs68ZmiMsM1DQ_4dashNtBg_10DashParserINtNtCsgunZfVqxqQ3_4pest6parser6ParserNtBg_4RuleE5parse5rules7visible7workout00s5_0Bg_
FN:16,_RNCNvNtNtNvXs_Cs68ZmiMsM1DQ_4dashNtBc_10DashParserINtNtCsgunZfVqxqQ3_4pest6parser6ParserNtBc_4RuleE5parse5rules7visible11warmup_step0Bc_
FN:16,_RNCNCNvNtNtNvXs_Cs68ZmiMsM1DQ_4dashNtBe_10DashParserINtNtCsgunZfVqxqQ3_4pest6parser6ParserNtBe_4RuleE5parse5rules7visible11warmup_step00Be_
FN:16,_RNCNCNCNvNtNtNvXs_Cs68ZmiMsM1DQ_4dashNtBg_10DashParserINtNtCsgunZfVqxqQ3_4pest6parser6ParserNtBg_4RuleE5parse5rules7visible11warmup_step000Bg_
FN:16,_RNCNCNCNvNtNtNvXs_Cs68ZmiMsM1DQ_4dashNtBg_10DashParserINtNtCsgunZfVqxqQ3_4pest6parser6ParserNtBg_4RuleE5parse5rules7visible11warmup_step00s_0Bg_
FN:16,_RNCNvNtNtNvXs_Cs68ZmiMsM1DQ_4dashNtBc_10DashParserINtNtCsgunZfVqxqQ3_4pest6parser6ParserNtBc_4RuleE5parse5rules7visible13cooldown_step0Bc_
FN:16,_RNCNCNvNtNtNvXs_Cs68ZmiMsM1DQ_4dashNtBe_10DashParserINtNtCsgunZfVqxqQ3_4pest6parser6ParserNtBe_4RuleE5parse5rules7visible13cooldown_step00Be_
FN:16,_RNCNCNCNvNtNtNvXs_Cs68ZmiMsM1DQ_4dashNtBg_10DashParserINtNtCsgunZfVqxqQ3_4pest6parser6ParserNtBg_4RuleE5parse5rules7visible13cooldown_step000Bg_
FN:16,_RNCNCNCNvNtNtNvXs_Cs68ZmiMsM1DQ_4dashNtBg_10DashParserINtNtCsgunZfVqxqQ3_4pest6parser6ParserNtBg_4RuleE5parse5rules7visible13cooldown_step00s_0Bg_
FN:16,_RNCNvNtNtNvXs_Cs68ZmiMsM1DQ_4dashNtBc_10DashParserINtNtCsgunZfVqxqQ3_4pest6parser6ParserNtBc_4RuleE5parse5rules7visible15interval_blocks0Bc_
FN:16,_RNCNCNvNtNtNvXs_Cs68ZmiMsM1DQ_4dashNtBe_10DashParserINtNtCsgunZfVqxqQ3_4pest6parser6ParserNtBe_4RuleE5parse5rules7visible15interval_blocks00Be_
FN:16,_RNCNCNCNvNtNtNvXs_Cs68ZmiMsM1DQ_4dashNtBg_10DashParserINtNtCsgunZfVqxqQ3_4pest6parser6ParserNtBg_4RuleE5parse5rules7visible15interval_blocks000Bg_
FN:16,_RNCNCNCNvNtNtNvXs_Cs68ZmiMsM1DQ_4dashNtBg_10DashParserINtNtCsgunZfVqxqQ3_4pest6parser6ParserNtBg_4RuleE5parse5rules7visible15interval_blocks00s_0Bg_
FN:16,_RNCNCNCNCNvNtNtNvXs_Cs68ZmiMsM1DQ_4dashNtBi_10DashParserINtNtCsgunZfVqxqQ3_4pest6parser6ParserNtBi_4RuleE5parse5rules7visible15interval_blocks00s_00Bi_
FN:16,_RNCNCNCNCNCNvNtNtNvXs_Cs68ZmiMsM1DQ_4dashNtBk_10DashParserINtNtCsgunZfVqxqQ3_4pest6parser6ParserNtBk_4RuleE5parse5rules7visible15interval_blocks00s_000Bk_
FN:16,_RNCNCNCNCNCNCNvNtNtNvXs_Cs68ZmiMsM1DQ_4dashNtBm_10DashParserINtNtCsgunZfVqxqQ3_4pest6parser6ParserNtBm_4RuleE5parse5rules7visible15interval_blocks00s_0000Bm_
FN:16,_RNCNCNCNCNCNCNCNvNtNtNvXs_Cs68ZmiMsM1DQ_4dashNtBo_10DashParserINtNtCsgunZfVqxqQ3_4pest6parser6ParserNtBo_4RuleE5parse5rules7visible15interval_blocks00s_00000Bo_
FN:16,_RNCNCNCNCNCNCNCNvNtNtNvXs_Cs68ZmiMsM1DQ_4dashNtBo_10DashParserINtNtCsgunZfVqxqQ3_4pest6parser6ParserNtBo_4RuleE5parse5rules7visible15interval_blocks00s_0000s_0Bo_
FN:16,_RNCNCNCNCNCNCNCNCNvNtNtNvXs_Cs68ZmiMsM1DQ_4dashNtBq_10DashParserINtNtCsgunZfVqxqQ3_4pest6parser6ParserNtBq_4RuleE5parse5rules7visible15interval_blocks00s_0000s_00Bq_
FN:16,_RNCNCNCNCNCNCNCNvNtNtNvXs_Cs68ZmiMsM1DQ_4dashNtBo_10DashParserINtNtCsgunZfVqxqQ3_4pest6parser6ParserNtBo_4RuleE5parse5rules7visible15interval_blocks00s_0000s0_0Bo_
FN:16,_RNCNCNCNCNCNCNCNvNtNtNvXs_Cs68ZmiMsM1DQ_4dashNtBo_10DashParserINtNtCsgunZfVqxqQ3_4pest6parser6ParserNtBo_4RuleE5parse5rules7visible15interval_blocks00s_0000s1_0Bo_
FN:16,_RNCNCNCNCNCNCNvNtNtNvXs_Cs68ZmiMsM1DQ_4dashNtBm_10DashParserINtNtCsgunZfVqxqQ3_4pest6parser6ParserNtBm_4RuleE5parse5rules7visible15interval_blocks00s_000s_0Bm_
FN:16,_RNCNCNCNCNCNCNCNvNtNtNvXs_Cs68ZmiMsM1DQ_4dashNtBo_10DashParserINtNtCsgunZfVqxqQ3_4pest6parser6ParserNtBo_4RuleE5parse5rules7visible15interval_blocks00s_000s_00Bo_
FN:16,_RNCNCNCNCNCNCNCNCNvNtNtNvXs_Cs68ZmiMsM1DQ_4dashNtBq_10DashParserINtNtCsgunZfVqxqQ3_4pest6parser6ParserNtBq_4RuleE5parse5rules7visible15interval_blocks00s_000s_000Bq_
FN:16,_RNCNCNCNCNCNCNCNCNCNvNtNtNvXs_Cs68ZmiMsM1DQ_4dashNtBs_10DashParserINtNtCsgunZfVqxqQ3_4pest6parser6ParserNtBs_4RuleE5parse5rules7visible15interval_blocks00s_000s_0000Bs_
FN:16,_RNCNCNCNCNCNCNCNCNCNCNvNtNtNvXs_Cs68ZmiMsM1DQ_4dashNtBu_10DashParserINtNtCsgunZfVqxqQ3_4pest6parser6ParserNtBu_4RuleE5parse5rules7visible15interval_blocks00s_000s_00000Bu_
FN:16,_RNCNCNCNCNCNCNCNCNCNCNCNvNtNtNvXs_Cs68ZmiMsM1DQ_4dashNtBw_10DashParserINtNtCsgunZfVqxqQ3_4pest6parser6ParserNtBw_4RuleE5parse5rules7visible15interval_blocks00s_000s_000000Bw_
FN:16,_RNCNCNCNCNCNCNCNCNCNCNCNvNtNtNvXs_Cs68ZmiMsM1DQ_4dashNtBw_10DashParserINtNtCsgunZfVqxqQ3_4pest6parser6ParserNtBw_4RuleE5parse5rules7visible15interval_blocks00s_000s_00000s_0Bw_
FN:16,_RNCNCNCNCNCNCNCNCNCNCNCNCNvNtNtNvXs_Cs68ZmiMsM1DQ_4dashNtBy_10DashParserINtNtCsgunZfVqxqQ3_4pest6parser6ParserNtBy_4RuleE5parse5rules7visible15interval_blocks00s_000s_00000s_00By_
FN:16,_RNCNCNCNCNCNCNCNCNCNCNCNvNtNtNvXs_Cs68ZmiMsM1DQ_4dashNtBw_10DashParserINtNtCsgunZfVqxqQ3_4pest6parser6ParserNtBw_4RuleE5parse5rules7visible15interval_blocks00s_000s_00000s0_0Bw_
FN:16,_RNCNCNCNCNCNCNCNCNCNCNCNvNtNtNvXs_Cs68ZmiMsM1DQ_4dashNtBw_10DashParserINtNtCsgunZfVqxqQ3_4pest6parser6ParserNtBw_4RuleE5parse5rules7visible15interval_blocks00s_000s_00000s1_0Bw_
FN:16,_RNCNvNtNtNvXs_Cs68ZmiMsM1DQ_4dashNtBc_10DashParserINtNtCsgunZfVqxqQ3_4pest6parser6ParserNtBc_4RuleE5parse5rules7visible14interval_block0Bc_
FN:16,_RNCNCNvNtNtNvXs_Cs68ZmiMsM1DQ_4dashNtBe_10DashParserINtNtCsgunZfVqxqQ3_4pest6parser6ParserNtBe_4RuleE5parse5rules7visible14interval_block00Be_
FN:16,_RNCNCNCNvNtNtNvXs_Cs68ZmiMsM1DQ_4dashNtBg_10DashParserINtNtCsgunZfVqxqQ3_4pest6parser6ParserNtBg_4RuleE5parse5rules7visible14interval_block000Bg_
FN:16,_RNCNCNCNCNvNtNtNvXs_Cs68ZmiMsM1DQ_4dashNtBi_10DashParserINtNtCsgunZfVqxqQ3_4pest6parser6ParserNtBi_4RuleE5parse5rules7visible14interval_block0000Bi_
FN:16,_RNCNCNCNCNvNtNtNvXs_Cs68ZmiMsM1DQ_4dashNtBi_10DashParserINtNtCsgunZfVqxqQ3_4pest6parser6ParserNtBi_4RuleE5parse5rules7visible14interval_block000s_0Bi_
FN:16,_RNCNCNCNCNvNtNtNvXs_Cs68ZmiMsM1DQ_4dashNtBi_10DashParserINtNtCsgunZfVqxqQ3_4pest6parser6ParserNtBi_4RuleE5parse5rules7visible14interval_block000s0_0Bi_
FN:16,_RNCNCNCNCNvNtNtNvXs_Cs68ZmiMsM1DQ_4dashNtBi_10DashParserINtNtCsgunZfVqxqQ3_4pest6parser6ParserNtBi_4RuleE5parse5rules7visible14interval_block000s1_0Bi_
FN:16,_RNCNCNCNCNvNtNtNvXs_Cs68ZmiMsM1DQ_4dashNtBi_10DashParserINtNtCsgunZfVqxqQ3_4pest6parser6ParserNtBi_4RuleE5parse5rules7visible14interval_block000s2_0Bi_
FN:16,_RNCNCNCNCNvNtNtNvXs_Cs68ZmiMsM1DQ_4dashNtBi_10DashParserINtNtCsgunZfVqxqQ3_4pest6parser6ParserNtBi_4RuleE5parse5rules7visible14interval_block000s3_0Bi_
FN:16,_RNCNCNCNCNvNtNtNvXs_Cs68ZmiMsM1DQ_4dashNtBi_10DashParserINtNtCsgunZfVqxqQ3_4pest6parser6ParserNtBi_4RuleE5parse5rules7visible14interval_block000s4_0Bi_
FN:16,_RNCNCNCNCNvNtNtNvXs_Cs68ZmiMsM1DQ_4dashNtBi_10DashParserINtNtCsgunZfVqxqQ3_4pest6parser6ParserNtBi_4RuleE5parse5rules7visible14interval_block000s5_0Bi_
FN:16,_RNCNvNtNtNvXs_Cs68ZmiMsM1DQ_4dashNtBc_10DashParserINtNtCsgunZfVqxqQ3_4pest6parser6ParserNtBc_4RuleE5parse5rules7visible13interval_reps0Bc_
FN:16,_RNCNCNvNtNtNvXs_Cs68ZmiMsM1DQ_4dashNtBe_10DashParserINtNtCsgunZfVqxqQ3_4pest6parser6ParserNtBe_4RuleE5parse5rules7visible13interval_reps00Be_
FN:16,_RNCNCNCNvNtNtNvXs_Cs68ZmiMsM1DQ_4dashNtBg_10DashParserINtNtCsgunZfVqxqQ3_4pest6parser6ParserNtBg_4RuleE5parse5rules7visible13interval_reps000Bg_
FN:16,_RNCNCNCNvNtNtNvXs_Cs68ZmiMsM1DQ_4dashNtBg_10DashParserINtNtCsgunZfVqxqQ3_4pest6parser6ParserNtBg_4RuleE5parse5rules7visible13interval_reps00s_0Bg_
FN:16,_RNCNCNCNCNvNtNtNvXs_Cs68ZmiMsM1DQ_4dashNtBi_10DashParserINtNtCsgunZfVqxqQ3_4pest6parser6ParserNtBi_4RuleE5parse5rules7visible13interval_reps00s_00Bi_
FN:16,_RNCNCNCNCNCNvNtNtNvXs_Cs68ZmiMsM1DQ_4dashNtBk_10DashParserINtNtCsgunZfVqxqQ3_4pest6parser6ParserNtBk_4RuleE5parse5rules7visible13interval_reps00s_000Bk_
FN:16,_RNCNCNCNCNCNCNvNtNtNvXs_Cs68ZmiMsM1DQ_4dashNtBm_10DashParserINtNtCsgunZfVqxqQ3_4pest6parser6ParserNtBm_4RuleE5parse5rules7visible13interval_reps00s_0000Bm_
FN:16,_RNCNCNCNCNCNCNCNvNtNtNvXs_Cs68ZmiMsM1DQ_4dashNtBo_10DashParserINtNtCsgunZfVqxqQ3_4pest6parser6ParserNtBo_4RuleE5parse5rules7visible13interval_reps00s_00000Bo_
FN:16,_RNCNCNCNCNCNCNCNvNtNtNvXs_Cs68ZmiMsM1DQ_4dashNtBo_10DashParserINtNtCsgunZfVqxqQ3_4pest6parser6ParserNtBo_4RuleE5parse5rules7visible13interval_reps00s_0000s_0Bo_
FN:16,_RNCNCNCNCNCNCNvNtNtNvXs_Cs68ZmiMsM1DQ_4dashNtBm_10DashParserINtNtCsgunZfVqxqQ3_4pest6parser6ParserNtBm_4RuleE5parse5rules7visible13interval_reps00s_000s_0Bm_
FN:16,_RNCNCNCNCNCNCNCNvNtNtNvXs_Cs68ZmiMsM1DQ_4dashNtBo_10DashParserINtNtCsgunZfVqxqQ3_4pest6parser6ParserNtBo_4RuleE5parse5rules7visible13interval_reps00s_000s_00Bo_
FN:16,_RNCNCNCNCNCNCNCNCNvNtNtNvXs_Cs68ZmiMsM1DQ_4dashNtBq_10DashParserINtNtCsgunZfVqxqQ3_4pest6parser6ParserNtBq_4RuleE5parse5rules7visible13interval_reps00s_000s_000Bq_
FN:16,_RNCNCNCNCNCNCNCNCNCNvNtNtNvXs_Cs68ZmiMsM1DQ_4dashNtBs_10DashParserINtNtCsgunZfVqxqQ3_4pest6parser6ParserNtBs_4RuleE5parse5rules7visible13interval_reps00s_000s_0000Bs_
FN:16,_RNCNCNCNCNCNCNCNCNCNCNvNtNtNvXs_Cs68ZmiMsM1DQ_4dashNtBu_10DashParserINtNtCsgunZfVqxqQ3_4pest6parser6ParserNtBu_4RuleE5parse5rules7visible13interval_reps00s_000s_00000Bu_
FN:16,_RNCNCNCNCNCNCNCNCNCNCNCNvNtNtNvXs_Cs68ZmiMsM1DQ_4dashNtBw_10DashParserINtNtCsgunZfVqxqQ3_4pest6parser6ParserNtBw_4RuleE5parse5rules7visible13interval_reps00s_000s_000000Bw_
FN:16,_RNCNCNCNCNCNCNCNCNCNCNCNvNtNtNvXs_Cs68ZmiMsM1DQ_4dashNtBw_10DashParserINtNtCsgunZfVqxqQ3_4pest6parser6ParserNtBw_4RuleE5parse5rules7visible13interval_reps00s_000s_00000s_0Bw_
FN:16,_RNCNvNtNtNvXs_Cs68ZmiMsM1DQ_4dashNtBc_10DashParserINtNtCsgunZfVqxqQ3_4pest6parser6ParserNtBc_4RuleE5parse5rules7visible13interval_step0Bc_
FN:16,_RNCNCNvNtNtNvXs_Cs68ZmiMsM1DQ_4dashNtBe_10DashParserINtNtCsgunZfVqxqQ3_4pest6parser6ParserNtBe_4RuleE5parse5rules7visible13interval_step00Be_
FN:16,_RNCNCNCNvNtNtNvXs_Cs68ZmiMsM1DQ_4dashNtBg_10DashParserINtNtCsgunZfVqxqQ3_4pest6parser6ParserNtBg_4RuleE5parse5rules7visible13interval_step000Bg_
FN:16,_RNCNCNCNvNtNtNvXs_Cs68ZmiMsM1DQ_4dashNtBg_10DashParserINtNtCsgunZfVqxqQ3_4pest6parser6ParserNtBg_4RuleE5parse5rules7visible13interval_step00s_0Bg_
FN:16,_RNCNCNCNCNvNtNtNvXs_Cs68ZmiMsM1DQ_4dashNtBi_10DashParserINtNtCsgunZfVqxqQ3_4pest6parser6ParserNtBi_4RuleE5parse5rules7visible13interval_step00s_00Bi_
FN:16,_RNCNvNtNtNvXs_Cs68ZmiMsM1DQ_4dashNtBc_10DashParserINtNtCsgunZfVqxqQ3_4pest6parser6ParserNtBc_4RuleE5parse5rules7visible8recovery0Bc_
FN:16,_RNCNvNtNtNvXs_Cs68ZmiMsM1DQ_4dashNtBc_10DashParserINtNtCsgunZfVqxqQ3_4pest6parser6ParserNtBc_4RuleE5parse5rules7visible12workout_step0Bc_
FN:16,_RNCNCNvNtNtNvXs_Cs68ZmiMsM1DQ_4dashNtBe_10DashParserINtNtCsgunZfVqxqQ3_4pest6parser6ParserNtBe_4RuleE5parse5rules7visible12workout_step00Be_
FN:16,_RNCNCNCNvNtNtNvXs_Cs68ZmiMsM1DQ_4dashNtBg_10DashParserINtNtCsgunZfVqxqQ3_4pest6parser6ParserNtBg_4RuleE5parse5rules7visible12workout_step000Bg_
FN:16,_RNCNCNCNvNtNtNvXs_Cs68ZmiMsM1DQ_4dashNtBg_10DashParserINtNtCsgunZfVqxqQ3_4pest6parser6ParserNtBg_4RuleE5parse5rules7visible12workout_step00s_0Bg_
FN:16,_RNCNCNCNCNvNtNtNvXs_Cs68ZmiMsM1DQ_4dashNtBi_10DashParserINtNtCsgunZfVqxqQ3_4pest6parser6ParserNtBi_4RuleE5parse5rules7visible12workout_step00s_00Bi_
FN:16,_RNCNCNCNCNCNvNtNtNvXs_Cs68ZmiMsM1DQ_4dashNtBk_10DashParserINtNtCsgunZfVqxqQ3_4pest6parser6ParserNtBk_4RuleE5parse5rules7visible12workout_step00s_000Bk_
FN:16,_RNCNCNCNCNCNCNvNtNtNvXs_Cs68ZmiMsM1DQ_4dashNtBm_10DashParserINtNtCsgunZfVqxqQ3_4pest6parser6ParserNtBm_4RuleE5parse5rules7visible12workout_step00s_0000Bm_
FN:16,_RNCNCNCNCNCNCNvNtNtNvXs_Cs68ZmiMsM1DQ_4dashNtBm_10DashParserINtNtCsgunZfVqxqQ3_4pest6parser6ParserNtBm_4RuleE5parse5rules7visible12workout_step00s_000s_0Bm_
FN:16,_RNCNvNtNtNvXs_Cs68ZmiMsM1DQ_4dashNtBc_10DashParserINtNtCsgunZfVqxqQ3_4pest6parser6ParserNtBc_4RuleE5parse5rules7visible5alert0Bc_
FN:16,_RNCNvNtNtNvXs_Cs68ZmiMsM1DQ_4dashNtBc_10DashParserINtNtCsgunZfVqxqQ3_4pest6parser6ParserNtBc_4RuleE5parse5rules7visible5alerts_0Bc_
FN:16,_RNCNvNtNtNvXs_Cs68ZmiMsM1DQ_4dashNtBc_10DashParserINtNtCsgunZfVqxqQ3_4pest6parser6ParserNtBc_4RuleE5parse5rules7visible16heart_rate_alert0Bc_
FN:16,_RNCNCNvNtNtNvXs_Cs68ZmiMsM1DQ_4dashNtBe_10DashParserINtNtCsgunZfVqxqQ3_4pest6parser6ParserNtBe_4RuleE5parse5rules7visible16heart_rate_alert00Be_
FN:16,_RNCNCNvNtNtNvXs_Cs68ZmiMsM1DQ_4dashNtBe_10DashParserINtNtCsgunZfVqxqQ3_4pest6parser6ParserNtBe_4RuleE5parse5rules7visible16heart_rate_alert0s_0Be_
FN:16,_RNCNCNvNtNtNvXs_Cs68ZmiMsM1DQ_4dashNtBe_10DashParserINtNtCsgunZfVqxqQ3_4pest6parser6ParserNtBe_4RuleE5parse5rules7visible16heart_rate_alert0s0_0Be_
FN:16,_RNCNCNvNtNtNvXs_Cs68ZmiMsM1DQ_4dashNtBe_10DashParserINtNtCsgunZfVqxqQ3_4pest6parser6ParserNtBe_4RuleE5parse5rules7visible16heart_rate_alert0s1_0Be_
FN:16,_RNCNvNtNtNvXs_Cs68ZmiMsM1DQ_4dashNtBc_10DashParserINtNtCsgunZfVqxqQ3_4pest6parser6ParserNtBc_4RuleE5parse5rules7visible2z10Bc_
FN:16,_RNCNvNtNtNvXs_Cs68ZmiMsM1DQ_4dashNtBc_10DashParserINtNtCsgunZfVqxqQ3_4pest6parser6ParserNtBc_4RuleE5parse5rules7visible2z20Bc_
FN:16,_RNCNvNtNtNvXs_Cs68ZmiMsM1DQ_4dashNtBc_10DashParserINtNtCsgunZfVqxqQ3_4pest6parser6ParserNtBc_4RuleE5parse5rules7visible2z30Bc_
FN:16,_RNCNvNtNtNvXs_Cs68ZmiMsM1DQ_4dashNtBc_10DashParserINtNtCsgunZfVqxqQ3_4pest6parser6ParserNtBc_4RuleE5parse5rules7visible2z40Bc_
FN:16,_RNCNvNtNtNvXs_Cs68ZmiMsM1DQ_4dashNtBc_10DashParserINtNtCsgunZfVqxqQ3_4pest6parser6ParserNtBc_4RuleE5parse5rules7visible2z50Bc_
FN:16,_RNCNvNtNtNvXs_Cs68ZmiMsM1DQ_4dashNtBc_10DashParserINtNtCsgunZfVqxqQ3_4pest6parser6ParserNtBc_4RuleE5parse5rules7visible20pace_threshold_alert0Bc_
FN:16,_RNCNvNtNtNvXs_Cs68ZmiMsM1DQ_4dashNtBc_10DashParserINtNtCsgunZfVqxqQ3_4pest6parser6ParserNtBc_4RuleE5parse5rules7visible16pace_range_alert0Bc_
FN:16,_RNCNCNvNtNtNvXs_Cs68ZmiMsM1DQ_4dashNtBe_10DashParserINtNtCsgunZfVqxqQ3_4pest6parser6ParserNtBe_4RuleE5parse5rules7visible16pace_range_alert00Be_
FN:16,_RNCNCNCNvNtNtNvXs_Cs68ZmiMsM1DQ_4dashNtBg_10DashParserINtNtCsgunZfVqxqQ3_4pest6parser6ParserNtBg_4RuleE5parse5rules7visible16pace_range_alert000Bg_
FN:16,_RNCNCNCNvNtNtNvXs_Cs68ZmiMsM1DQ_4dashNtBg_10DashParserINtNtCsgunZfVqxqQ3_4pest6parser6ParserNtBg_4RuleE5parse5rules7visible16pace_range_alert00s_0Bg_
FN:16,_RNCNCNCNvNtNtNvXs_Cs68ZmiMsM1DQ_4dashNtBg_10DashParserINtNtCsgunZfVqxqQ3_4pest6parser6ParserNtBg_4RuleE5parse5rules7visible16pace_range_alert00s0_0Bg_
FN:16,_RNCNCNCNvNtNtNvXs_Cs68ZmiMsM1DQ_4dashNtBg_10DashParserINtNtCsgunZfVqxqQ3_4pest6parser6ParserNtBg_4RuleE5parse5rules7visible16pace_range_alert00s1_0Bg_
FN:16,_RNCNCNCNvNtNtNvXs_Cs68ZmiMsM1DQ_4dashNtBg_10DashParserINtNtCsgunZfVqxqQ3_4pest6parser6ParserNtBg_4RuleE5parse5rules7visible16pace_range_alert00s2_0Bg_
FN:16,_RNCNCNCNvNtNtNvXs_Cs68ZmiMsM1DQ_4dashNtBg_10DashParserINtNtCsgunZfVqxqQ3_4pest6parser6ParserNtBg_4RuleE5parse5rules7visible16pace_range_alert00s3_0Bg_
FN:16,_RNCNCNCNvNtNtNvXs_Cs68ZmiMsM1DQ_4dashNtBg_10DashParserINtNtCsgunZfVqxqQ3_4pest6parser6ParserNtBg_4RuleE5parse5rules7visible16pace_range_alert00s4_0Bg_
FN:16,_RNCNCNCNvNtNtNvXs_Cs68ZmiMsM1DQ_4dashNtBg_10DashParserINtNtCsgunZfVqxqQ3_4pest6parser6ParserNtBg_4RuleE5parse5rules7visible16pace_range_alert00s5_0Bg_
FN:16,_RNCNvNtNtNvXs_Cs68ZmiMsM1DQ_4dashNtBc_10DashParserINtNtCsgunZfVqxqQ3_4pest6parser6ParserNtBc_4RuleE5parse5rules7visible4pace0Bc_
FN:16,_RNCNCNvNtNtNvXs_Cs68ZmiMsM1DQ_4dashNtBe_10DashParserINtNtCsgunZfVqxqQ3_4pest6parser6ParserNtBe_4RuleE5parse5rules7visible4pace00Be_
FN:16,_RNCNCNCNvNtNtNvXs_Cs68ZmiMsM1DQ_4dashNtBg_10DashParserINtNtCsgunZfVqxqQ3_4pest6parser6ParserNtBg_4RuleE5parse5rules7visible4pace000Bg_
FN:16,_RNCNCNCNvNtNtNvXs_Cs68ZmiMsM1DQ_4dashNtBg_10DashParserINtNtCsgunZfVqxqQ3_4pest6parser6ParserNtBg_4RuleE5parse5rules7visible4pace00s_0Bg_
FN:16,_RNCNCNCNvNtNtNvXs_Cs68ZmiMsM1DQ_4dashNtBg_10DashParserINtNtCsgunZfVqxqQ3_4pest6parser6ParserNtBg_4RuleE5parse5rules7visible4pace00s0_0Bg_
FN:16,_RNCNCNCNvNtNtNvXs_Cs68ZmiMsM1DQ_4dashNtBg_10DashParserINtNtCsgunZfVqxqQ3_4pest6parser6ParserNtBg_4RuleE5parse5rules7visible4pace00s1_0Bg_
FN:16,_RNCNvNtNtNvXs_Cs68ZmiMsM1DQ_4dashNtBc_10DashParserINtNtCsgunZfVqxqQ3_4pest6parser6ParserNtBc_4RuleE5parse5rules7visible9pace_time0Bc_
FN:16,_RNCNCNvNtNtNvXs_Cs68ZmiMsM1DQ_4dashNtBe_10DashParserINtNtCsgunZfVqxqQ3_4pest6parser6ParserNtBe_4RuleE5parse5rules7visible9pace_time00Be_
FN:16,_RNCNCNCNvNtNtNvXs_Cs68ZmiMsM1DQ_4dashNtBg_10DashParserINtNtCsgunZfVqxqQ3_4pest6parser6ParserNtBg_4RuleE5parse5rules7visible9pace_time000Bg_
FN:16,_RNCNCNCNCNvNtNtNvXs_Cs68ZmiMsM1DQ_4dashNtBi_10DashParserINtNtCsgunZfVqxqQ3_4pest6parser6ParserNtBi_4RuleE5parse5rules7visible9pace_time0000Bi_
FN:16,_RNCNCNCNCNCNvNtNtNvXs_Cs68ZmiMsM1DQ_4dashNtBk_10DashParserINtNtCsgunZfVqxqQ3_4pest6parser6ParserNtBk_4RuleE5parse5rules7visible9pace_time00000Bk_
FN:16,_RNCNCNCNCNCNCNvNtNtNvXs_Cs68ZmiMsM1DQ_4dashNtBm_10DashParserINtNtCsgunZfVqxqQ3_4pest6parser6ParserNtBm_4RuleE5parse5rules7visible9pace_time000000Bm_
FN:16,_RNCNCNCNCNvNtNtNvXs_Cs68ZmiMsM1DQ_4dashNtBi_10DashParserINtNtCsgunZfVqxqQ3_4pest6parser6ParserNtBi_4RuleE5parse5rules7visible9pace_time000s_0Bi_
FN:16,_RNCNCNCNCNvNtNtNvXs_Cs68ZmiMsM1DQ_4dashNtBi_10DashParserINtNtCsgunZfVqxqQ3_4pest6parser6ParserNtBi_4RuleE5parse5rules7visible9pace_time000s0_0Bi_
FN:16,_RNCNCNCNCNvNtNtNvXs_Cs68ZmiMsM1DQ_4dashNtBi_10DashParserINtNtCsgunZfVqxqQ3_4pest6parser6ParserNtBi_4RuleE5parse5rules7visible9pace_time000s1_0Bi_
FN:16,_RNCNvNtNtNvXs_Cs68ZmiMsM1DQ_4dashNtBc_10DashParserINtNtCsgunZfVqxqQ3_4pest6parser6ParserNtBc_4RuleE5parse5rules7visible4goal0Bc_
FN:16,_RNCNvNtNtNvXs_Cs68ZmiMsM1DQ_4dashNtBc_10DashParserINtNtCsgunZfVqxqQ3_4pest6parser6ParserNtBc_4RuleE5parse5rules7visible13distance_goal0Bc_
FN:16,_RNCNCNvNtNtNvXs_Cs68ZmiMsM1DQ_4dashNtBe_10DashParserINtNtCsgunZfVqxqQ3_4pest6parser6ParserNtBe_4RuleE5parse5rules7visible13distance_goal00Be_
FN:16,_RNCNCNCNvNtNtNvXs_Cs68ZmiMsM1DQ_4dashNtBg_10DashParserINtNtCsgunZfVqxqQ3_4pest6parser6ParserNtBg_4RuleE5parse5rules7visible13distance_goal000Bg_
FN:16,_RNCNCNCNvNtNtNvXs_Cs68ZmiMsM1DQ_4dashNtBg_10DashParserINtNtCsgunZfVqxqQ3_4pest6parser6ParserNtBg_4RuleE5parse5rules7visible13distance_goal00s_0Bg_
FN:16,_RNCNvNtNtNvXs_Cs68ZmiMsM1DQ_4dashNtBc_10DashParserINtNtCsgunZfVqxqQ3_4pest6parser6ParserNtBc_4RuleE5parse5rules7visible13duration_goal0Bc_
FN:16,_RNCNCNvNtNtNvXs_Cs68ZmiMsM1DQ_4dashNtBe_10DashParserINtNtCsgunZfVqxqQ3_4pest6parser6ParserNtBe_4RuleE5parse5rules7visible13duration_goal00Be_
FN:16,_RNCNCNCNvNtNtNvXs_Cs68ZmiMsM1DQ_4dashNtBg_10DashParserINtNtCsgunZfVqxqQ3_4pest6parser6ParserNtBg_4RuleE5parse5rules7visible13duration_goal000Bg_
FN:16,_RNCNCNCNvNtNtNvXs_Cs68ZmiMsM1DQ_4dashNtBg_10DashParserINtNtCsgunZfVqxqQ3_4pest6parser6ParserNtBg_4RuleE5parse5rules7visible13duration_goal00s_0Bg_
FN:16,_RNCNvNtNtNvXs_Cs68ZmiMsM1DQ_4dashNtBc_10DashParserINtNtCsgunZfVqxqQ3_4pest6parser6ParserNtBc_4RuleE5parse5rules7visible11unit_length0Bc_
FN:16,_RNCNvNtNtNvXs_Cs68ZmiMsM1DQ_4dashNtBc_10DashParserINtNtCsgunZfVqxqQ3_4pest6parser6ParserNtBc_4RuleE5parse5rules7visible11unit_lengths_0Bc_
FN:16,_RNCNvNtNtNvXs_Cs68ZmiMsM1DQ_4dashNtBc_10DashParserINtNtCsgunZfVqxqQ3_4pest6parser6ParserNtBc_4RuleE5parse5rules7visible11unit_lengths0_0Bc_
FN:16,_RNCNvNtNtNvXs_Cs68ZmiMsM1DQ_4dashNtBc_10DashParserINtNtCsgunZfVqxqQ3_4pest6parser6ParserNtBc_4RuleE5parse5rules7visible11unit_lengths1_0Bc_
FN:16,_RNCNvNtNtNvXs_Cs68ZmiMsM1DQ_4dashNtBc_10DashParserINtNtCsgunZfVqxqQ3_4pest6parser6ParserNtBc_4RuleE5parse5rules7visible5miles0Bc_
FN:16,_RNCNCNvNtNtNvXs_Cs68ZmiMsM1DQ_4dashNtBe_10DashParserINtNtCsgunZfVqxqQ3_4pest6parser6ParserNtBe_4RuleE5parse5rules7visible5miles00Be_
FN:16,_RNCNCNvNtNtNvXs_Cs68ZmiMsM1DQ_4dashNtBe_10DashParserINtNtCsgunZfVqxqQ3_4pest6parser6ParserNtBe_4RuleE5parse5rules7visible5miles0s_0Be_
FN:16,_RNCNvNtNtNvXs_Cs68ZmiMsM1DQ_4dashNtBc_10DashParserINtNtCsgunZfVqxqQ3_4pest6parser6ParserNtBc_4RuleE5parse5rules7visible5yards0Bc_
FN:16,_RNCNCNvNtNtNvXs_Cs68ZmiMsM1DQ_4dashNtBe_10DashParserINtNtCsgunZfVqxqQ3_4pest6parser6ParserNtBe_4RuleE5parse5rules7visible5yards00Be_
FN:16,_RNCNCNvNtNtNvXs_Cs68ZmiMsM1DQ_4dashNtBe_10DashParserINtNtCsgunZfVqxqQ3_4pest6parser6ParserNtBe_4RuleE5parse5rules7visible5yards0s_0Be_
FN:16,_RNCNvNtNtNvXs_Cs68ZmiMsM1DQ_4dashNtBc_10DashParserINtNtCsgunZfVqxqQ3_4pest6parser6ParserNtBc_4RuleE5parse5rules7visible4feet0Bc_
FN:16,_RNCNCNvNtNtNvXs_Cs68ZmiMsM1DQ_4dashNtBe_10DashParserINtNtCsgunZfVqxqQ3_4pest6parser6ParserNtBe_4RuleE5parse5rules7visible4feet00Be_
FN:16,_RNCNCNvNtNtNvXs_Cs68ZmiMsM1DQ_4dashNtBe_10DashParserINtNtCsgunZfVqxqQ3_4pest6parser6ParserNtBe_4RuleE5parse5rules7visible4feet0s_0Be_
FN:16,_RNCNvNtNtNvXs_Cs68ZmiMsM1DQ_4dashNtBc_10DashParserINtNtCsgunZfVqxqQ3_4pest6parser6ParserNtBc_4RuleE5parse5rules7visible5meter0Bc_
FN:16,_RNCNCNvNtNtNvXs_Cs68ZmiMsM1DQ_4dashNtBe_10DashParserINtNtCsgunZfVqxqQ3_4pest6parser6ParserNtBe_4RuleE5parse5rules7visible5meter00Be_
FN:16,_RNCNCNvNtNtNvXs_Cs68ZmiMsM1DQ_4dashNtBe_10DashParserINtNtCsgunZfVqxqQ3_4pest6parser6ParserNtBe_4RuleE5parse5rules7visible5meter0s_0Be_
FN:16,_RNCNvNtNtNvXs_Cs68ZmiMsM1DQ_4dashNtBc_10DashParserINtNtCsgunZfVqxqQ3_4pest6parser6ParserNtBc_4RuleE5parse5rules7visible9kilometer0Bc_
FN:16,_RNCNCNvNtNtNvXs_Cs68ZmiMsM1DQ_4dashNtBe_10DashParserINtNtCsgunZfVqxqQ3_4pest6parser6ParserNtBe_4RuleE5parse5rules7visible9kilometer00Be_
FN:16,_RNCNCNvNtNtNvXs_Cs68ZmiMsM1DQ_4dashNtBe_10DashParserINtNtCsgunZfVqxqQ3_4pest6parser6ParserNtBe_4RuleE5parse5rules7visible9kilometer0s_0Be_
FN:16,_RNCNvNtNtNvXs_Cs68ZmiMsM1DQ_4dashNtBc_10DashParserINtNtCsgunZfVqxqQ3_4pest6parser6ParserNtBc_4RuleE5parse5rules7visible13unit_duration0Bc_
FN:16,_RNCNvNtNtNvXs_Cs68ZmiMsM1DQ_4dashNtBc_10DashParserINtNtCsgunZfVqxqQ3_4pest6parser6ParserNtBc_4RuleE5parse5rules7visible13unit_durations_0Bc_
FN:16,_RNCNvNtNtNvXs_Cs68ZmiMsM1DQ_4dashNtBc_10DashParserINtNtCsgunZfVqxqQ3_4pest6parser6ParserNtBc_4RuleE5parse5rules7visible7seconds0Bc_
FN:16,_RNCNCNvNtNtNvXs_Cs68ZmiMsM1DQ_4dashNtBe_10DashParserINtNtCsgunZfVqxqQ3_4pest6parser6ParserNtBe_4RuleE5parse5rules7visible7seconds00Be_
FN:16,_RNCNCNvNtNtNvXs_Cs68ZmiMsM1DQ_4dashNtBe_10DashParserINtNtCsgunZfVqxqQ3_4pest6parser6ParserNtBe_4RuleE5parse5rules7visible7seconds0s_0Be_
FN:16,_RNCNvNtNtNvXs_Cs68ZmiMsM1DQ_4dashNtBc_10DashParserINtNtCsgunZfVqxqQ3_4pest6parser6ParserNtBc_4RuleE5parse5rules7visible7minutes0Bc_
FN:16,_RNCNCNvNtNtNvXs_Cs68ZmiMsM1DQ_4dashNtBe_10DashParserINtNtCsgunZfVqxqQ3_4pest6parser6ParserNtBe_4RuleE5parse5rules7visible7minutes00Be_
FN:16,_RNCNCNvNtNtNvXs_Cs68ZmiMsM1DQ_4dashNtBe_10DashParserINtNtCsgunZfVqxqQ3_4pest6parser6ParserNtBe_4RuleE5parse5rules7visible7minutes0s_0Be_
FN:16,_RNCNvNtNtNvXs_Cs68ZmiMsM1DQ_4dashNtBc_10DashParserINtNtCsgunZfVqxqQ3_4pest6parser6ParserNtBc_4RuleE5parse5rules7visible5hours0Bc_
FN:16,_RNCNCNvNtNtNvXs_Cs68ZmiMsM1DQ_4dashNtBe_10DashParserINtNtCsgunZfVqxqQ3_4pest6parser6ParserNtBe_4RuleE5parse5rules7visible5hours00Be_
FN:16,_RNCNCNvNtNtNvXs_Cs68ZmiMsM1DQ_4dashNtBe_10DashParserINtNtCsgunZfVqxqQ3_4pest6parser6ParserNtBe_4RuleE5parse5rules7visible5hours0s_0Be_
FN:16,_RNCNvNtNtNvXs_Cs68ZmiMsM1DQ_4dashNtBc_10DashParserINtNtCsgunZfVqxqQ3_4pest6parser6ParserNtBc_4RuleE5parse5rules7visible6number0Bc_
FN:16,_RNCNCNvNtNtNvXs_Cs68ZmiMsM1DQ_4dashNtBe_10DashParserINtNtCsgunZfVqxqQ3_4pest6parser6ParserNtBe_4RuleE5parse5rules7visible6number00Be_
FN:16,_RNCNCNCNvNtNtNvXs_Cs68ZmiMsM1DQ_4dashNtBg_10DashParserINtNtCsgunZfVqxqQ3_4pest6parser6ParserNtBg_4RuleE5parse5rules7visible6number000Bg_
FN:16,_RNCNCNCNCNvNtNtNvXs_Cs68ZmiMsM1DQ_4dashNtBi_10DashParserINtNtCsgunZfVqxqQ3_4pest6parser6ParserNtBi_4RuleE5parse5rules7visible6number0000Bi_
FN:16,_RNCNCNCNCNCNvNtNtNvXs_Cs68ZmiMsM1DQ_4dashNtBk_10DashParserINtNtCsgunZfVqxqQ3_4pest6parser6ParserNtBk_4RuleE5parse5rules7visible6number00000Bk_
FN:16,_RNCNCNCNCNCNCNvNtNtNvXs_Cs68ZmiMsM1DQ_4dashNtBm_10DashParserINtNtCsgunZfVqxqQ3_4pest6parser6ParserNtBm_4RuleE5parse5rules7visible6number000000Bm_
FN:16,_RNCNCNCNCNvNtNtNvXs_Cs68ZmiMsM1DQ_4dashNtBi_10DashParserINtNtCsgunZfVqxqQ3_4pest6parser6ParserNtBi_4RuleE5parse5rules7visible6number000s_0Bi_
FN:16,_RNCNCNCNCNCNvNtNtNvXs_Cs68ZmiMsM1DQ_4dashNtBk_10DashParserINtNtCsgunZfVqxqQ3_4pest6parser6ParserNtBk_4RuleE5parse5rules7visible6number000s_00Bk_
FN:16,_RNCNCNCNCNCNCNvNtNtNvXs_Cs68ZmiMsM1DQ_4dashNtBm_10DashParserINtNtCsgunZfVqxqQ3_4pest6parser6ParserNtBm_4RuleE5parse5rules7visible6number000s_000Bm_
FN:16,_RNCNCNCNCNCNCNCNvNtNtNvXs_Cs68ZmiMsM1DQ_4dashNtBo_10DashParserINtNtCsgunZfVqxqQ3_4pest6parser6ParserNtBo_4RuleE5parse5rules7visible6number000s_0000Bo_
FN:16,_RNCNCNCNCNCNCNCNvNtNtNvXs_Cs68ZmiMsM1DQ_4dashNtBo_10DashParserINtNtCsgunZfVqxqQ3_4pest6parser6ParserNtBo_4RuleE5parse5rules7visible6number000s_000s_0Bo_
FN:16,_RNCNCNCNCNCNCNCNCNvNtNtNvXs_Cs68ZmiMsM1DQ_4dashNtBq_10DashParserINtNtCsgunZfVqxqQ3_4pest6parser6ParserNtBq_4RuleE5parse5rules7visible6number000s_000s_00Bq_
FN:16,_RNCNvNtNtNvXs_Cs68ZmiMsM1DQ_4dashNtBc_10DashParserINtNtCsgunZfVqxqQ3_4pest6parser6ParserNtBc_4RuleE5parse5rules7visible3EOI0Bc_
FN:16,_RNCNvXs_Cs68ZmiMsM1DQ_4dashNtB6_10DashParserINtNtCsgunZfVqxqQ3_4pest6parser6ParserNtB6_4RuleE5parse0B6_
FN:215,_RNvNtCs68ZmiMsM1DQ_4dash5testss_18test_parse_workout
FN:240,_RNvNtCs68ZmiMsM1DQ_4dash5testss_42test_parse_workout_without_warmup_cooldown
FN:252,_RNvNtCs68ZmiMsM1DQ_4dash5testss_37test_parse_workout_with_duration_goal
FN:270,_RNvNtCs68ZmiMsM1DQ_4dash5testss_38test_parse_workout_with_pace_threshold
FN:287,_RNvNtCs68ZmiMsM1DQ_4dash5testss_34test_parse_workout_with_pace_range
FN:306,_RNvNtCs68ZmiMsM1DQ_4dash5testss_44test_parse_workout_with_all_heart_rate_zones
FN:331,_RNvNtCs68ZmiMsM1DQ_4dash5testss_46test_parse_workout_with_different_length_units
FN:356,_RNvNtCs68ZmiMsM1DQ_4dash5testss_44test_parse_workout_with_different_time_units
FN:375,_RNvNtCs68ZmiMsM1DQ_4dash5testss_42test_parse_workout_with_multiple_intervals
FN:403,_RNvNtCs68ZmiMsM1DQ_4dash5testss_37test_parse_workout_with_invalid_input
FNDA:0,_RNvMCs68ZmiMsM1DQ_4dashNtB2_4Rule9all_rules
FNDA:15,_RNvCs68ZmiMsM1DQ_4dash13parse_workout
FNDA:30,_RNvCs68ZmiMsM1DQ_4dash18parse_workout_step
FNDA:9,_RNvCs68ZmiMsM1DQ_4dash21parse_interval_blocks
FNDA:20,_RNvCs68ZmiMsM1DQ_4dash20parse_interval_block
FNDA:24,_RNvCs68ZmiMsM1DQ_4dash19parse_interval_step
FNDA:3,_RNvCs68ZmiMsM1DQ_4dash14parse_time_str
FNDA:1,_RNvCs68ZmiMsM1DQ_4dash16parse_pace_range
FNDA:1,_RNvCs68ZmiMsM1DQ_4dash10parse_pace
FNDA:25,_RNvCs68ZmiMsM1DQ_4dash17parse_length_unit
FNDA:7,_RNvCs68ZmiMsM1DQ_4dash15parse_time_unit
FNDA:10,_RNvCs68ZmiMsM1DQ_4dash21parse_heart_rate_zone
FNDA:15,_RNvXs_Cs68ZmiMsM1DQ_4dashNtB4_10DashParserINtNtCsgunZfVqxqQ3_4pest6parser6ParserNtB4_4RuleE5parse
FNDA:410,_RNvNtNtNvXs_Cs68ZmiMsM1DQ_4dashNtBa_10DashParserINtNtCsgunZfVqxqQ3_4pest6parser6ParserNtBa_4RuleE5parse5rules6hidden4skipBa_
FNDA:630,_RNvNtNtNvXs_Cs68ZmiMsM1DQ_4dashNtBa_10DashParserINtNtCsgunZfVqxqQ3_4pest6parser6ParserNtBa_4RuleE5parse5rules7visible10WHITESPACEBa_
FNDA:15,_RNvNtNtNvXs_Cs68ZmiMsM1DQ_4dashNtBa_10DashParserINtNtCsgunZfVqxqQ3_4pest6parser6ParserNtBa_4RuleE5parse5rules7visible7workoutBa_
FNDA:15,_RNvNtNtNvXs_Cs68ZmiMsM1DQ_4dashNtBa_10DashParserINtNtCsgunZfVqxqQ3_4pest6parser6ParserNtBa_4RuleE5parse5rules7visible11warmup_stepBa_
FNDA:17,_RNvNtNtNvXs_Cs68ZmiMsM1DQ_4dashNtBa_10DashParserINtNtCsgunZfVqxqQ3_4pest6parser6ParserNtBa_4RuleE5parse5rules7visible13cooldown_stepBa_
FNDA:15,_RNvNtNtNvXs_Cs68ZmiMsM1DQ_4dashNtBa_10DashParserINtNtCsgunZfVqxqQ3_4pest6parser6ParserNtBa_4RuleE5parse5rules7visible15interval_blocksBa_
FNDA:26,_RNvNtNtNvXs_Cs68ZmiMsM1DQ_4dashNtBa_10DashParserINtNtCsgunZfVqxqQ3_4pest6parser6ParserNtBa_4RuleE5parse5rules7visible14interval_blockBa_
FNDA:5,_RNvNtNtNvXs_Cs68ZmiMsM1DQ_4dashNtBa_10DashParserINtNtCsgunZfVqxqQ3_4pest6parser6ParserNtBa_4RuleE5parse5rules7visible13interval_repsBa_
FNDA:35,_RNvNtNtNvXs_Cs68ZmiMsM1DQ_4dashNtBa_10DashParserINtNtCsgunZfVqxqQ3_4pest6parser6ParserNtBa_4RuleE5parse5rules7visible13interval_stepBa_
FNDA:27,_RNvNtNtNvXs_Cs68ZmiMsM1DQ_4dashNtBa_10DashParserINtNtCsgunZfVqxqQ3_4pest6parser6ParserNtBa_4RuleE5parse5rules7visible8recoveryBa_
FNDA:67,_RNvNtNtNvXs_Cs68ZmiMsM1DQ_4dashNtBa_10DashParserINtNtCsgunZfVqxqQ3_4pest6parser6ParserNtBa_4RuleE5parse5rules7visible12workout_stepBa_
FNDA:25,_RNvNtNtNvXs_Cs68ZmiMsM1DQ_4dashNtBa_10DashParserINtNtCsgunZfVqxqQ3_4pest6parser6ParserNtBa_4RuleE5parse5rules7visible5alertBa_
FNDA:25,_RNvNtNtNvXs_Cs68ZmiMsM1DQ_4dashNtBa_10DashParserINtNtCsgunZfVqxqQ3_4pest6parser6ParserNtBa_4RuleE5parse5rules7visible16heart_rate_alertBa_
FNDA:25,_RNvNtNtNvXs_Cs68ZmiMsM1DQ_4dashNtBa_10DashParserINtNtCsgunZfVqxqQ3_4pest6parser6ParserNtBa_4RuleE5parse5rules7visible2z1Ba_
FNDA:23,_RNvNtNtNvXs_Cs68ZmiMsM1DQ_4dashNtBa_10DashParserINtNtCsgunZfVqxqQ3_4pest6parser6ParserNtBa_4RuleE5parse5rules7visible2z2Ba_
FNDA:21,_RNvNtNtNvXs_Cs68ZmiMsM1DQ_4dashNtBa_10DashParserINtNtCsgunZfVqxqQ3_4pest6parser6ParserNtBa_4RuleE5parse5rules7visible2z3Ba_
FNDA:16,_RNvNtNtNvXs_Cs68ZmiMsM1DQ_4dashNtBa_10DashParserINtNtCsgunZfVqxqQ3_4pest6parser6ParserNtBa_4RuleE5parse5rules7visible2z4Ba_
FNDA:12,_RNvNtNtNvXs_Cs68ZmiMsM1DQ_4dashNtBa_10DashParserINtNtCsgunZfVqxqQ3_4pest6parser6ParserNtBa_4RuleE5parse5rules7visible2z5Ba_
FNDA:8,_RNvNtNtNvXs_Cs68ZmiMsM1DQ_4dashNtBa_10DashParserINtNtCsgunZfVqxqQ3_4pest6parser6ParserNtBa_4RuleE5parse5rules7visible20pace_threshold_alertBa_
FNDA:10,_RNvNtNtNvXs_Cs68ZmiMsM1DQ_4dashNtBa_10DashParserINtNtCsgunZfVqxqQ3_4pest6parser6ParserNtBa_4RuleE5parse5rules7visible16pace_range_alertBa_
FNDA:8,_RNvNtNtNvXs_Cs68ZmiMsM1DQ_4dashNtBa_10DashParserINtNtCsgunZfVqxqQ3_4pest6parser6ParserNtBa_4RuleE5parse5rules7visible4paceBa_
FNDA:22,_RNvNtNtNvXs_Cs68ZmiMsM1DQ_4dashNtBa_10DashParserINtNtCsgunZfVqxqQ3_4pest6parser6ParserNtBa_4RuleE5parse5rules7visible9pace_timeBa_
FNDA:67,_RNvNtNtNvXs_Cs68ZmiMsM1DQ_4dashNtBa_10DashParserINtNtCsgunZfVqxqQ3_4pest6parser6ParserNtBa_4RuleE5parse5rules7visible4goalBa_
FNDA:56,_RNvNtNtNvXs_Cs68ZmiMsM1DQ_4dashNtBa_10DashParserINtNtCsgunZfVqxqQ3_4pest6parser6ParserNtBa_4RuleE5parse5rules7visible13distance_goalBa_
FNDA:67,_RNvNtNtNvXs_Cs68ZmiMsM1DQ_4dashNtBa_10DashParserINtNtCsgunZfVqxqQ3_4pest6parser6ParserNtBa_4RuleE5parse5rules7visible13duration_goalBa_
FNDA:56,_RNvNtNtNvXs_Cs68ZmiMsM1DQ_4dashNtBa_10DashParserINtNtCsgunZfVqxqQ3_4pest6parser6ParserNtBa_4RuleE5parse5rules7visible11unit_lengthBa_
FNDA:56,_RNvNtNtNvXs_Cs68ZmiMsM1DQ_4dashNtBa_10DashParserINtNtCsgunZfVqxqQ3_4pest6parser6ParserNtBa_4RuleE5parse5rules7visible5milesBa_
FNDA:17,_RNvNtNtNvXs_Cs68ZmiMsM1DQ_4dashNtBa_10DashParserINtNtCsgunZfVqxqQ3_4pest6parser6ParserNtBa_4RuleE5parse5rules7visible5yardsBa_
FNDA:15,_RNvNtNtNvXs_Cs68ZmiMsM1DQ_4dashNtBa_10DashParserINtNtCsgunZfVqxqQ3_4pest6parser6ParserNtBa_4RuleE5parse5rules7visible4feetBa_
FNDA:13,_RNvNtNtNvXs_Cs68ZmiMsM1DQ_4dashNtBa_10DashParserINtNtCsgunZfVqxqQ3_4pest6parser6ParserNtBa_4RuleE5parse5rules7visible5meterBa_
FNDA:11,_RNvNtNtNvXs_Cs68ZmiMsM1DQ_4dashNtBa_10DashParserINtNtCsgunZfVqxqQ3_4pest6parser6ParserNtBa_4RuleE5parse5rules7visible9kilometerBa_
FNDA:63,_RNvNtNtNvXs_Cs68ZmiMsM1DQ_4dashNtBa_10DashParserINtNtCsgunZfVqxqQ3_4pest6parser6ParserNtBa_4RuleE5parse5rules7visible13unit_durationBa_
FNDA:63,_RNvNtNtNvXs_Cs68ZmiMsM1DQ_4dashNtBa_10DashParserINtNtCsgunZfVqxqQ3_4pest6parser6ParserNtBa_4RuleE5parse5rules7visible7secondsBa_
FNDA:61,_RNvNtNtNvXs_Cs68ZmiMsM1DQ_4dashNtBa_10DashParserINtNtCsgunZfVqxqQ3_4pest6parser6ParserNtBa_4RuleE5parse5rules7visible7minutesBa_
FNDA:54,_RNvNtNtNvXs_Cs68ZmiMsM1DQ_4dashNtBa_10DashParserINtNtCsgunZfVqxqQ3_4pest6parser6ParserNtBa_4RuleE5parse5rules7visible5hoursBa_
FNDA:131,_RNvNtNtNvXs_Cs68ZmiMsM1DQ_4dashNtBa_10DashParserINtNtCsgunZfVqxqQ3_4pest6parser6ParserNtBa_4RuleE5parse5rules7visible6numberBa_
FNDA:12,_RNvNtNtNvXs_Cs68ZmiMsM1DQ_4dashNtBa_10DashParserINtNtCsgunZfVqxqQ3_4pest6parser6ParserNtBa_4RuleE5parse5rules7visible3EOIBa_
FNDA:15,_RNvNtNtNvXs_Cs68ZmiMsM1DQ_4dashNtBa_10DashParserINtNtCsgunZfVqxqQ3_4pest6parser6ParserNtBa_4RuleE5parse5rules7visible3SOIBa_
FNDA:387,_RNvNtNtNvXs_Cs68ZmiMsM1DQ_4dashNtBa_10DashParserINtNtCsgunZfVqxqQ3_4pest6parser6ParserNtBa_4RuleE5parse5rules7visible11ASCII_DIGITBa_
FNDA:630,_RNCNvNtNtNvXs_Cs68ZmiMsM1DQ_4dashNtBc_10DashParserINtNtCsgunZfVqxqQ3_4pest6parser6ParserNtBc_4RuleE5parse5rules6hidden4skip0Bc_
FNDA:630,_RNCNvNtNtNvXs_Cs68ZmiMsM1DQ_4dashNtBc_10DashParserINtNtCsgunZfVqxqQ3_4pest6parser6ParserNtBc_4RuleE5parse5rules7visible10WHITESPACE0Bc_
FNDA:410,_RNCNCNvNtNtNvXs_Cs68ZmiMsM1DQ_4dashNtBe_10DashParserINtNtCsgunZfVqxqQ3_4pest6parser6ParserNtBe_4RuleE5parse5rules7visible10WHITESPACE00Be_
FNDA:410,_RNCNCNvNtNtNvXs_Cs68ZmiMsM1DQ_4dashNtBe_10DashParserINtNtCsgunZfVqxqQ3_4pest6parser6ParserNtBe_4RuleE5parse5rules7visible10WHITESPACE0s_0Be_
FNDA:15,_RNCNvNtNtNvXs_Cs68ZmiMsM1DQ_4dashNtBc_10DashParserINtNtCsgunZfVqxqQ3_4pest6parser6ParserNtBc_4RuleE5parse5rules7visible7workout0Bc_
FNDA:15,_RNCNCNvNtNtNvXs_Cs68ZmiMsM1DQ_4dashNtBe_10DashParserINtNtCsgunZfVqxqQ3_4pest6parser6ParserNtBe_4RuleE5parse5rules7visible7workout00Be_
FNDA:15,_RNCNCNCNvNtNtNvXs_Cs68ZmiMsM1DQ_4dashNtBg_10DashParserINtNtCsgunZfVqxqQ3_4pest6parser6ParserNtBg_4RuleE5parse5rules7visible7workout000Bg_
FNDA:15,_RNCNCNCNvNtNtNvXs_Cs68ZmiMsM1DQ_4dashNtBg_10DashParserINtNtCsgunZfVqxqQ3_4pest6parser6ParserNtBg_4RuleE5parse5rules7visible7workout00s_0Bg_
FNDA:15,_RNCNCNCNCNvNtNtNvXs_Cs68ZmiMsM1DQ_4dashNtBi_10DashParserINtNtCsgunZfVqxqQ3_4pest6parser6ParserNtBi_4RuleE5parse5rules7visible7workout00s_00Bi_
FNDA:15,_RNCNCNCNCNCNvNtNtNvXs_Cs68ZmiMsM1DQ_4dashNtBk_10DashParserINtNtCsgunZfVqxqQ3_4pest6parser6ParserNtBk_4RuleE5parse5rules7visible7workout00s_000Bk_
FNDA:3,_RNCNCNCNCNCNCNvNtNtNvXs_Cs68ZmiMsM1DQ_4dashNtBm_10DashParserINtNtCsgunZfVqxqQ3_4pest6parser6ParserNtBm_4RuleE5parse5rules7visible7workout00s_0000Bm_
FNDA:3,_RNCNCNCNCNCNCNvNtNtNvXs_Cs68ZmiMsM1DQ_4dashNtBm_10DashParserINtNtCsgunZfVqxqQ3_4pest6parser6ParserNtBm_4RuleE5parse5rules7visible7workout00s_000s_0Bm_
FNDA:15,_RNCNCNCNvNtNtNvXs_Cs68ZmiMsM1DQ_4dashNtBg_10DashParserINtNtCsgunZfVqxqQ3_4pest6parser6ParserNtBg_4RuleE5parse5rules7visible7workout00s0_0Bg_
FNDA:15,_RNCNCNCNvNtNtNvXs_Cs68ZmiMsM1DQ_4dashNtBg_10DashParserINtNtCsgunZfVqxqQ3_4pest6parser6ParserNtBg_4RuleE5parse5rules7visible7workout00s1_0Bg_
FNDA:12,_RNCNCNCNvNtNtNvXs_Cs68ZmiMsM1DQ_4dashNtBg_10DashParserINtNtCsgunZfVqxqQ3_4pest6parser6ParserNtBg_4RuleE5parse5rules7visible7workout00s2_0Bg_
FNDA:12,_RNCNCNCNvNtNtNvXs_Cs68ZmiMsM1DQ_4dashNtBg_10DashParserINtNtCsgunZfVqxqQ3_4pest6parser6ParserNtBg_4RuleE5parse5rules7visible7workout00s3_0Bg_
FNDA:12,_RNCNCNCNCNvNtNtNvXs_Cs68ZmiMsM1DQ_4dashNtBi_10DashParserINtNtCsgunZfVqxqQ3_4pest6parser6ParserNtBi_4RuleE5parse5rules7visible7workout00s3_00Bi_
FNDA:12,_RNCNCNCNCNCNvNtNtNvXs_Cs68ZmiMsM1DQ_4dashNtBk_10DashParserINtNtCsgunZfVqxqQ3_4pest6parser6ParserNtBk_4RuleE5parse5rules7visible7workout00s3_000Bk_
FNDA:3,_RNCNCNCNCNCNCNvNtNtNvXs_Cs68ZmiMsM1DQ_4dashNtBm_10DashParserINtNtCsgunZfVqxqQ3_4pest6parser6ParserNtBm_4RuleE5parse5rules7visible7workout00s3_0000Bm_
FNDA:3,_RNCNCNCNCNCNCNvNtNtNvXs_Cs68ZmiMsM1DQ_4dashNtBm_10DashParserINtNtCsgunZfVqxqQ3_4pest6parser6ParserNtBm_4RuleE5parse5rules7visible7workout00s3_000s_0Bm_
FNDA:12,_RNCNCNCNvNtNtNvXs_Cs68ZmiMsM1DQ_4dashNtBg_10DashParserINtNtCsgunZfVqxqQ3_4pest6parser6ParserNtBg_4RuleE5parse5rules7visible7workout00s4_0Bg_
FNDA:12,_RNCNCNCNvNtNtNvXs_Cs68ZmiMsM1DQ_4dashNtBg_10DashParserINtNtCsgunZfVqxqQ3_4pest6parser6ParserNtBg_4RuleE5parse5rules7visible7workout00s5_0Bg_
FNDA:15,_RNCNvNtNtNvXs_Cs68ZmiMsM1DQ_4dashNtBc_10DashParserINtNtCsgunZfVqxqQ3_4pest6parser6ParserNtBc_4RuleE5parse5rules7visible11warmup_step0Bc_
FNDA:15,_RNCNCNvNtNtNvXs_Cs68ZmiMsM1DQ_4dashNtBe_10DashParserINtNtCsgunZfVqxqQ3_4pest6parser6ParserNtBe_4RuleE5parse5rules7visible11warmup_step00Be_
FNDA:11,_RNCNCNCNvNtNtNvXs_Cs68ZmiMsM1DQ_4dashNtBg_10DashParserINtNtCsgunZfVqxqQ3_4pest6parser6ParserNtBg_4RuleE5parse5rules7visible11warmup_step000Bg_
FNDA:11,_RNCNCNCNvNtNtNvXs_Cs68ZmiMsM1DQ_4dashNtBg_10DashParserINtNtCsgunZfVqxqQ3_4pest6parser6ParserNtBg_4RuleE5parse5rules7visible11warmup_step00s_0Bg_
FNDA:17,_RNCNvNtNtNvXs_Cs68ZmiMsM1DQ_4dashNtBc_10DashParserINtNtCsgunZfVqxqQ3_4pest6parser6ParserNtBc_4RuleE5parse5rules7visible13cooldown_step0Bc_
FNDA:17,_RNCNCNvNtNtNvXs_Cs68ZmiMsM1DQ_4dashNtBe_10DashParserINtNtCsgunZfVqxqQ3_4pest6parser6ParserNtBe_4RuleE5parse5rules7visible13cooldown_step00Be_
FNDA:16,_RNCNCNCNvNtNtNvXs_Cs68ZmiMsM1DQ_4dashNtBg_10DashParserINtNtCsgunZfVqxqQ3_4pest6parser6ParserNtBg_4RuleE5parse5rules7visible13cooldown_step000Bg_
FNDA:16,_RNCNCNCNvNtNtNvXs_Cs68ZmiMsM1DQ_4dashNtBg_10DashParserINtNtCsgunZfVqxqQ3_4pest6parser6ParserNtBg_4RuleE5parse5rules7visible13cooldown_step00s_0Bg_
FNDA:15,_RNCNvNtNtNvXs_Cs68ZmiMsM1DQ_4dashNtBc_10DashParserINtNtCsgunZfVqxqQ3_4pest6parser6ParserNtBc_4RuleE5parse5rules7visible15interval_blocks0Bc_
FNDA:15,_RNCNCNvNtNtNvXs_Cs68ZmiMsM1DQ_4dashNtBe_10DashParserINtNtCsgunZfVqxqQ3_4pest6parser6ParserNtBe_4RuleE5parse5rules7visible15interval_blocks00Be_
FNDA:12,_RNCNCNCNvNtNtNvXs_Cs68ZmiMsM1DQ_4dashNtBg_10DashParserINtNtCsgunZfVqxqQ3_4pest6parser6ParserNtBg_4RuleE5parse5rules7visible15interval_blocks000Bg_
FNDA:12,_RNCNCNCNvNtNtNvXs_Cs68ZmiMsM1DQ_4dashNtBg_10DashParserINtNtCsgunZfVqxqQ3_4pest6parser6ParserNtBg_4RuleE5parse5rules7visible15interval_blocks00s_0Bg_
FNDA:12,_RNCNCNCNCNvNtNtNvXs_Cs68ZmiMsM1DQ_4dashNtBi_10DashParserINtNtCsgunZfVqxqQ3_4pest6parser6ParserNtBi_4RuleE5parse5rules7visible15interval_blocks00s_00Bi_
FNDA:12,_RNCNCNCNCNCNvNtNtNvXs_Cs68ZmiMsM1DQ_4dashNtBk_10DashParserINtNtCsgunZfVqxqQ3_4pest6parser6ParserNtBk_4RuleE5parse5rules7visible15interval_blocks00s_000Bk_
FNDA:12,_RNCNCNCNCNCNCNvNtNtNvXs_Cs68ZmiMsM1DQ_4dashNtBm_10DashParserINtNtCsgunZfVqxqQ3_4pest6parser6ParserNtBm_4RuleE5parse5rules7visible15interval_blocks00s_0000Bm_
FNDA:6,_RNCNCNCNCNCNCNCNvNtNtNvXs_Cs68ZmiMsM1DQ_4dashNtBo_10DashParserINtNtCsgunZfVqxqQ3_4pest6parser6ParserNtBo_4RuleE5parse5rules7visible15interval_blocks00s_00000Bo_
FNDA:6,_RNCNCNCNCNCNCNCNvNtNtNvXs_Cs68ZmiMsM1DQ_4dashNtBo_10DashParserINtNtCsgunZfVqxqQ3_4pest6parser6ParserNtBo_4RuleE5parse5rules7visible15interval_blocks00s_0000s_0Bo_
FNDA:6,_RNCNCNCNCNCNCNCNCNvNtNtNvXs_Cs68ZmiMsM1DQ_4dashNtBq_10DashParserINtNtCsgunZfVqxqQ3_4pest6parser6ParserNtBq_4RuleE5parse5rules7visible15interval_blocks00s_0000s_00Bq_
FNDA:4,_RNCNCNCNCNCNCNCNvNtNtNvXs_Cs68ZmiMsM1DQ_4dashNtBo_10DashParserINtNtCsgunZfVqxqQ3_4pest6parser6ParserNtBo_4RuleE5parse5rules7visible15interval_blocks00s_0000s0_0Bo_
FNDA:4,_RNCNCNCNCNCNCNCNvNtNtNvXs_Cs68ZmiMsM1DQ_4dashNtBo_10DashParserINtNtCsgunZfVqxqQ3_4pest6parser6ParserNtBo_4RuleE5parse5rules7visible15interval_blocks00s_0000s1_0Bo_
FNDA:4,_RNCNCNCNCNCNCNvNtNtNvXs_Cs68ZmiMsM1DQ_4dashNtBm_10DashParserINtNtCsgunZfVqxqQ3_4pest6parser6ParserNtBm_4RuleE5parse5rules7visible15interval_blocks00s_000s_0Bm_
FNDA:11,_RNCNCNCNCNCNCNCNvNtNtNvXs_Cs68ZmiMsM1DQ_4dashNtBo_10DashParserINtNtCsgunZfVqxqQ3_4pest6parser6ParserNtBo_4RuleE5parse5rules7visible15interval_blocks00s_000s_00Bo_
FNDA:11,_RNCNCNCNCNCNCNCNCNvNtNtNvXs_Cs68ZmiMsM1DQ_4dashNtBq_10DashParserINtNtCsgunZfVqxqQ3_4pest6parser6ParserNtBq_4RuleE5parse5rules7visible15interval_blocks00s_000s_000Bq_
FNDA:11,_RNCNCNCNCNCNCNCNCNCNvNtNtNvXs_Cs68ZmiMsM1DQ_4dashNtBs_10DashParserINtNtCsgunZfVqxqQ3_4pest6parser6ParserNtBs_4RuleE5parse5rules7visible15interval_blocks00s_000s_0000Bs_
FNDA:11,_RNCNCNCNCNCNCNCNCNCNCNvNtNtNvXs_Cs68ZmiMsM1DQ_4dashNtBu_10DashParserINtNtCsgunZfVqxqQ3_4pest6parser6ParserNtBu_4RuleE5parse5rules7visible15interval_blocks00s_000s_00000Bu_
FNDA:8,_RNCNCNCNCNCNCNCNCNCNCNCNvNtNtNvXs_Cs68ZmiMsM1DQ_4dashNtBw_10DashParserINtNtCsgunZfVqxqQ3_4pest6parser6ParserNtBw_4RuleE5parse5rules7visible15interval_blocks00s_000s_000000Bw_
FNDA:8,_RNCNCNCNCNCNCNCNCNCNCNCNvNtNtNvXs_Cs68ZmiMsM1DQ_4dashNtBw_10DashParserINtNtCsgunZfVqxqQ3_4pest6parser6ParserNtBw_4RuleE5parse5rules7visible15interval_blocks00s_000s_00000s_0Bw_
FNDA:8,_RNCNCNCNCNCNCNCNCNCNCNCNCNvNtNtNvXs_Cs68ZmiMsM1DQ_4dashNtBy_10DashParserINtNtCsgunZfVqxqQ3_4pest6parser6ParserNtBy_4RuleE5parse5rules7visible15interval_blocks00s_000s_00000s_00By_
FNDA:7,_RNCNCNCNCNCNCNCNCNCNCNCNvNtNtNvXs_Cs68ZmiMsM1DQ_4dashNtBw_10DashParserINtNtCsgunZfVqxqQ3_4pest6parser6ParserNtBw_4RuleE5parse5rules7visible15interval_blocks00s_000s_00000s0_0Bw_
FNDA:7,_RNCNCNCNCNCNCNCNCNCNCNCNvNtNtNvXs_Cs68ZmiMsM1DQ_4dashNtBw_10DashParserINtNtCsgunZfVqxqQ3_4pest6parser6ParserNtBw_4RuleE5parse5rules7visible15interval_blocks00s_000s_00000s1_0Bw_
FNDA:26,_RNCNvNtNtNvXs_Cs68ZmiMsM1DQ_4dashNtBc_10DashParserINtNtCsgunZfVqxqQ3_4pest6parser6ParserNtBc_4RuleE5parse5rules7visible14interval_block0Bc_
FNDA:8,_RNCNCNvNtNtNvXs_Cs68ZmiMsM1DQ_4dashNtBe_10DashParserINtNtCsgunZfVqxqQ3_4pest6parser6ParserNtBe_4RuleE5parse5rules7visible14interval_block00Be_
FNDA:8,_RNCNCNCNvNtNtNvXs_Cs68ZmiMsM1DQ_4dashNtBg_10DashParserINtNtCsgunZfVqxqQ3_4pest6parser6ParserNtBg_4RuleE5parse5rules7visible14interval_block000Bg_
FNDA:6,_RNCNCNCNCNvNtNtNvXs_Cs68ZmiMsM1DQ_4dashNtBi_10DashParserINtNtCsgunZfVqxqQ3_4pest6parser6ParserNtBi_4RuleE5parse5rules7visible14interval_block0000Bi_
FNDA:6,_RNCNCNCNCNvNtNtNvXs_Cs68ZmiMsM1DQ_4dashNtBi_10DashParserINtNtCsgunZfVqxqQ3_4pest6parser6ParserNtBi_4RuleE5parse5rules7visible14interval_block000s_0Bi_
FNDA:5,_RNCNCNCNCNvNtNtNvXs_Cs68ZmiMsM1DQ_4dashNtBi_10DashParserINtNtCsgunZfVqxqQ3_4pest6parser6ParserNtBi_4RuleE5parse5rules7visible14interval_block000s0_0Bi_
FNDA:5,_RNCNCNCNCNvNtNtNvXs_Cs68ZmiMsM1DQ_4dashNtBi_10DashParserINtNtCsgunZfVqxqQ3_4pest6parser6ParserNtBi_4RuleE5parse5rules7visible14interval_block000s1_0Bi_
FNDA:5,_RNCNCNCNCNvNtNtNvXs_Cs68ZmiMsM1DQ_4dashNtBi_10DashParserINtNtCsgunZfVqxqQ3_4pest6parser6ParserNtBi_4RuleE5parse5rules7visible14interval_block000s2_0Bi_
FNDA:5,_RNCNCNCNCNvNtNtNvXs_Cs68ZmiMsM1DQ_4dashNtBi_10DashParserINtNtCsgunZfVqxqQ3_4pest6parser6ParserNtBi_4RuleE5parse5rules7visible14interval_block000s3_0Bi_
FNDA:5,_RNCNCNCNCNvNtNtNvXs_Cs68ZmiMsM1DQ_4dashNtBi_10DashParserINtNtCsgunZfVqxqQ3_4pest6parser6ParserNtBi_4RuleE5parse5rules7visible14interval_block000s4_0Bi_
FNDA:5,_RNCNCNCNCNvNtNtNvXs_Cs68ZmiMsM1DQ_4dashNtBi_10DashParserINtNtCsgunZfVqxqQ3_4pest6parser6ParserNtBi_4RuleE5parse5rules7visible14interval_block000s5_0Bi_
FNDA:5,_RNCNvNtNtNvXs_Cs68ZmiMsM1DQ_4dashNtBc_10DashParserINtNtCsgunZfVqxqQ3_4pest6parser6ParserNtBc_4RuleE5parse5rules7visible13interval_reps0Bc_
FNDA:5,_RNCNCNvNtNtNvXs_Cs68ZmiMsM1DQ_4dashNtBe_10DashParserINtNtCsgunZfVqxqQ3_4pest6parser6ParserNtBe_4RuleE5parse5rules7visible13interval_reps00Be_
FNDA:5,_RNCNCNCNvNtNtNvXs_Cs68ZmiMsM1DQ_4dashNtBg_10DashParserINtNtCsgunZfVqxqQ3_4pest6parser6ParserNtBg_4RuleE5parse5rules7visible13interval_reps000Bg_
FNDA:5,_RNCNCNCNvNtNtNvXs_Cs68ZmiMsM1DQ_4dashNtBg_10DashParserINtNtCsgunZfVqxqQ3_4pest6parser6ParserNtBg_4RuleE5parse5rules7visible13interval_reps00s_0Bg_
FNDA:5,_RNCNCNCNCNvNtNtNvXs_Cs68ZmiMsM1DQ_4dashNtBi_10DashParserINtNtCsgunZfVqxqQ3_4pest6parser6ParserNtBi_4RuleE5parse5rules7visible13interval_reps00s_00Bi_
FNDA:5,_RNCNCNCNCNCNvNtNtNvXs_Cs68ZmiMsM1DQ_4dashNtBk_10DashParserINtNtCsgunZfVqxqQ3_4pest6parser6ParserNtBk_4RuleE5parse5rules7visible13interval_reps00s_000Bk_
FNDA:5,_RNCNCNCNCNCNCNvNtNtNvXs_Cs68ZmiMsM1DQ_4dashNtBm_10DashParserINtNtCsgunZfVqxqQ3_4pest6parser6ParserNtBm_4RuleE5parse5rules7visible13interval_reps00s_0000Bm_
FNDA:4,_RNCNCNCNCNCNCNCNvNtNtNvXs_Cs68ZmiMsM1DQ_4dashNtBo_10DashParserINtNtCsgunZfVqxqQ3_4pest6parser6ParserNtBo_4RuleE5parse5rules7visible13interval_reps00s_00000Bo_
FNDA:4,_RNCNCNCNCNCNCNCNvNtNtNvXs_Cs68ZmiMsM1DQ_4dashNtBo_10DashParserINtNtCsgunZfVqxqQ3_4pest6parser6ParserNtBo_4RuleE5parse5rules7visible13interval_reps00s_0000s_0Bo_
FNDA:4,_RNCNCNCNCNCNCNvNtNtNvXs_Cs68ZmiMsM1DQ_4dashNtBm_10DashParserINtNtCsgunZfVqxqQ3_4pest6parser6ParserNtBm_4RuleE5parse5rules7visible13interval_reps00s_000s_0Bm_
FNDA:4,_RNCNCNCNCNCNCNCNvNtNtNvXs_Cs68ZmiMsM1DQ_4dashNtBo_10DashParserINtNtCsgunZfVqxqQ3_4pest6parser6ParserNtBo_4RuleE5parse5rules7visible13interval_reps00s_000s_00Bo_
FNDA:4,_RNCNCNCNCNCNCNCNCNvNtNtNvXs_Cs68ZmiMsM1DQ_4dashNtBq_10DashParserINtNtCsgunZfVqxqQ3_4pest6parser6ParserNtBq_4RuleE5parse5rules7visible13interval_reps00s_000s_000Bq_
FNDA:4,_RNCNCNCNCNCNCNCNCNCNvNtNtNvXs_Cs68ZmiMsM1DQ_4dashNtBs_10DashParserINtNtCsgunZfVqxqQ3_4pest6parser6ParserNtBs_4RuleE5parse5rules7visible13interval_reps00s_000s_0000Bs_
FNDA:4,_RNCNCNCNCNCNCNCNCNCNCNvNtNtNvXs_Cs68ZmiMsM1DQ_4dashNtBu_10DashParserINtNtCsgunZfVqxqQ3_4pest6parser6ParserNtBu_4RuleE5parse5rules7visible13interval_reps00s_000s_00000Bu_
FNDA:0,_RNCNCNCNCNCNCNCNCNCNCNCNvNtNtNvXs_Cs68ZmiMsM1DQ_4dashNtBw_10DashParserINtNtCsgunZfVqxqQ3_4pest6parser6ParserNtBw_4RuleE5parse5rules7visible13interval_reps00s_000s_000000Bw_
FNDA:0,_RNCNCNCNCNCNCNCNCNCNCNCNvNtNtNvXs_Cs68ZmiMsM1DQ_4dashNtBw_10DashParserINtNtCsgunZfVqxqQ3_4pest6parser6ParserNtBw_4RuleE5parse5rules7visible13interval_reps00s_000s_00000s_0Bw_
FNDA:35,_RNCNvNtNtNvXs_Cs68ZmiMsM1DQ_4dashNtBc_10DashParserINtNtCsgunZfVqxqQ3_4pest6parser6ParserNtBc_4RuleE5parse5rules7visible13interval_step0Bc_
FNDA:35,_RNCNCNvNtNtNvXs_Cs68ZmiMsM1DQ_4dashNtBe_10DashParserINtNtCsgunZfVqxqQ3_4pest6parser6ParserNtBe_4RuleE5parse5rules7visible13interval_step00Be_
FNDA:27,_RNCNCNCNvNtNtNvXs_Cs68ZmiMsM1DQ_4dashNtBg_10DashParserINtNtCsgunZfVqxqQ3_4pest6parser6ParserNtBg_4RuleE5parse5rules7visible13interval_step000Bg_
FNDA:27,_RNCNCNCNvNtNtNvXs_Cs68ZmiMsM1DQ_4dashNtBg_10DashParserINtNtCsgunZfVqxqQ3_4pest6parser6ParserNtBg_4RuleE5parse5rules7visible13interval_step00s_0Bg_
FNDA:27,_RNCNCNCNCNvNtNtNvXs_Cs68ZmiMsM1DQ_4dashNtBi_10DashParserINtNtCsgunZfVqxqQ3_4pest6parser6ParserNtBi_4RuleE5parse5rules7visible13interval_step00s_00Bi_
FNDA:27,_RNCNvNtNtNvXs_Cs68ZmiMsM1DQ_4dashNtBc_10DashParserINtNtCsgunZfVqxqQ3_4pest6parser6ParserNtBc_4RuleE5parse5rules7visible8recovery0Bc_
FNDA:67,_RNCNvNtNtNvXs_Cs68ZmiMsM1DQ_4dashNtBc_10DashParserINtNtCsgunZfVqxqQ3_4pest6parser6ParserNtBc_4RuleE5parse5rules7visible12workout_step0Bc_
FNDA:67,_RNCNCNvNtNtNvXs_Cs68ZmiMsM1DQ_4dashNtBe_10DashParserINtNtCsgunZfVqxqQ3_4pest6parser6ParserNtBe_4RuleE5parse5rules7visible12workout_step00Be_
FNDA:54,_RNCNCNCNvNtNtNvXs_Cs68ZmiMsM1DQ_4dashNtBg_10DashParserINtNtCsgunZfVqxqQ3_4pest6parser6ParserNtBg_4RuleE5parse5rules7visible12workout_step000Bg_
FNDA:54,_RNCNCNCNvNtNtNvXs_Cs68ZmiMsM1DQ_4dashNtBg_10DashParserINtNtCsgunZfVqxqQ3_4pest6parser6ParserNtBg_4RuleE5parse5rules7visible12workout_step00s_0Bg_
FNDA:54,_RNCNCNCNCNvNtNtNvXs_Cs68ZmiMsM1DQ_4dashNtBi_10DashParserINtNtCsgunZfVqxqQ3_4pest6parser6ParserNtBi_4RuleE5parse5rules7visible12workout_step00s_00Bi_
FNDA:54,_RNCNCNCNCNCNvNtNtNvXs_Cs68ZmiMsM1DQ_4dashNtBk_10DashParserINtNtCsgunZfVqxqQ3_4pest6parser6ParserNtBk_4RuleE5parse5rules7visible12workout_step00s_000Bk_
FNDA:25,_RNCNCNCNCNCNCNvNtNtNvXs_Cs68ZmiMsM1DQ_4dashNtBm_10DashParserINtNtCsgunZfVqxqQ3_4pest6parser6ParserNtBm_4RuleE5parse5rules7visible12workout_step00s_0000Bm_
FNDA:25,_RNCNCNCNCNCNCNvNtNtNvXs_Cs68ZmiMsM1DQ_4dashNtBm_10DashParserINtNtCsgunZfVqxqQ3_4pest6parser6ParserNtBm_4RuleE5parse5rules7visible12workout_step00s_000s_0Bm_
FNDA:10,_RNCNvNtNtNvXs_Cs68ZmiMsM1DQ_4dashNtBc_10DashParserINtNtCsgunZfVqxqQ3_4pest6parser6ParserNtBc_4RuleE5parse5rules7visible5alert0Bc_
FNDA:8,_RNCNvNtNtNvXs_Cs68ZmiMsM1DQ_4dashNtBc_10DashParserINtNtCsgunZfVqxqQ3_4pest6parser6ParserNtBc_4RuleE5parse5rules7visible5alerts_0Bc_
FNDA:25,_RNCNvNtNtNvXs_Cs68ZmiMsM1DQ_4dashNtBc_10DashParserINtNtCsgunZfVqxqQ3_4pest6parser6ParserNtBc_4RuleE5parse5rules7visible16heart_rate_alert0Bc_
FNDA:23,_RNCNCNvNtNtNvXs_Cs68ZmiMsM1DQ_4dashNtBe_10DashParserINtNtCsgunZfVqxqQ3_4pest6parser6ParserNtBe_4RuleE5parse5rules7visible16heart_rate_alert00Be_
FNDA:21,_RNCNCNvNtNtNvXs_Cs68ZmiMsM1DQ_4dashNtBe_10DashParserINtNtCsgunZfVqxqQ3_4pest6parser6ParserNtBe_4RuleE5parse5rules7visible16heart_rate_alert0s_0Be_
FNDA:16,_RNCNCNvNtNtNvXs_Cs68ZmiMsM1DQ_4dashNtBe_10DashParserINtNtCsgunZfVqxqQ3_4pest6parser6ParserNtBe_4RuleE5parse5rules7visible16heart_rate_alert0s0_0Be_
FNDA:12,_RNCNCNvNtNtNvXs_Cs68ZmiMsM1DQ_4dashNtBe_10DashParserINtNtCsgunZfVqxqQ3_4pest6parser6ParserNtBe_4RuleE5parse5rules7visible16heart_rate_alert0s1_0Be_
FNDA:25,_RNCNvNtNtNvXs_Cs68ZmiMsM1DQ_4dashNtBc_10DashParserINtNtCsgunZfVqxqQ3_4pest6parser6ParserNtBc_4RuleE5parse5rules7visible2z10Bc_
FNDA:23,_RNCNvNtNtNvXs_Cs68ZmiMsM1DQ_4dashNtBc_10DashParserINtNtCsgunZfVqxqQ3_4pest6parser6ParserNtBc_4RuleE5parse5rules7visible2z20Bc_
FNDA:21,_RNCNvNtNtNvXs_Cs68ZmiMsM1DQ_4dashNtBc_10DashParserINtNtCsgunZfVqxqQ3_4pest6parser6ParserNtBc_4RuleE5parse5rules7visible2z30Bc_
FNDA:16,_RNCNvNtNtNvXs_Cs68ZmiMsM1DQ_4dashNtBc_10DashParserINtNtCsgunZfVqxqQ3_4pest6parser6ParserNtBc_4RuleE5parse5rules7visible2z40Bc_
FNDA:12,_RNCNvNtNtNvXs_Cs68ZmiMsM1DQ_4dashNtBc_10DashParserINtNtCsgunZfVqxqQ3_4pest6parser6ParserNtBc_4RuleE5parse5rules7visible2z50Bc_
FNDA:8,_RNCNvNtNtNvXs_Cs68ZmiMsM1DQ_4dashNtBc_10DashParserINtNtCsgunZfVqxqQ3_4pest6parser6ParserNtBc_4RuleE5parse5rules7visible20pace_threshold_alert0Bc_
FNDA:10,_RNCNvNtNtNvXs_Cs68ZmiMsM1DQ_4dashNtBc_10DashParserINtNtCsgunZfVqxqQ3_4pest6parser6ParserNtBc_4RuleE5parse5rules7visible16pace_range_alert0Bc_
FNDA:10,_RNCNCNvNtNtNvXs_Cs68ZmiMsM1DQ_4dashNtBe_10DashParserINtNtCsgunZfVqxqQ3_4pest6parser6ParserNtBe_4RuleE5parse5rules7visible16pace_range_alert00Be_
FNDA:6,_RNCNCNCNvNtNtNvXs_Cs68ZmiMsM1DQ_4dashNtBg_10DashParserINtNtCsgunZfVqxqQ3_4pest6parser6ParserNtBg_4RuleE5parse5rules7visible16pace_range_alert000Bg_
FNDA:6,_RNCNCNCNvNtNtNvXs_Cs68ZmiMsM1DQ_4dashNtBg_10DashParserINtNtCsgunZfVqxqQ3_4pest6parser6ParserNtBg_4RuleE5parse5rules7visible16pace_range_alert00s_0Bg_
FNDA:4,_RNCNCNCNvNtNtNvXs_Cs68ZmiMsM1DQ_4dashNtBg_10DashParserINtNtCsgunZfVqxqQ3_4pest6parser6ParserNtBg_4RuleE5parse5rules7visible16pace_range_alert00s0_0Bg_
FNDA:4,_RNCNCNCNvNtNtNvXs_Cs68ZmiMsM1DQ_4dashNtBg_10DashParserINtNtCsgunZfVqxqQ3_4pest6parser6ParserNtBg_4RuleE5parse5rules7visible16pace_range_alert00s1_0Bg_
FNDA:2,_RNCNCNCNvNtNtNvXs_Cs68ZmiMsM1DQ_4dashNtBg_10DashParserINtNtCsgunZfVqxqQ3_4pest6parser6ParserNtBg_4RuleE5parse5rules7visible16pace_range_alert00s2_0Bg_
FNDA:2,_RNCNCNCNvNtNtNvXs_Cs68ZmiMsM1DQ_4dashNtBg_10DashParserINtNtCsgunZfVqxqQ3_4pest6parser6ParserNtBg_4RuleE5parse5rules7visible16pace_range_alert00s3_0Bg_
FNDA:2,_RNCNCNCNvNtNtNvXs_Cs68ZmiMsM1DQ_4dashNtBg_10DashParserINtNtCsgunZfVqxqQ3_4pest6parser6ParserNtBg_4RuleE5parse5rules7visible16pace_range_alert00s4_0Bg_
FNDA:2,_RNCNCNCNvNtNtNvXs_Cs68ZmiMsM1DQ_4dashNtBg_10DashParserINtNtCsgunZfVqxqQ3_4pest6parser6ParserNtBg_4RuleE5parse5rules7visible16pace_range_alert00s5_0Bg_
FNDA:8,_RNCNvNtNtNvXs_Cs68ZmiMsM1DQ_4dashNtBc_10DashParserINtNtCsgunZfVqxqQ3_4pest6parser6ParserNtBc_4RuleE5parse5rules7visible4pace0Bc_
FNDA:8,_RNCNCNvNtNtNvXs_Cs68ZmiMsM1DQ_4dashNtBe_10DashParserINtNtCsgunZfVqxqQ3_4pest6parser6ParserNtBe_4RuleE5parse5rules7visible4pace00Be_
FNDA:4,_RNCNCNCNvNtNtNvXs_Cs68ZmiMsM1DQ_4dashNtBg_10DashParserINtNtCsgunZfVqxqQ3_4pest6parser6ParserNtBg_4RuleE5parse5rules7visible4pace000Bg_
FNDA:4,_RNCNCNCNvNtNtNvXs_Cs68ZmiMsM1DQ_4dashNtBg_10DashParserINtNtCsgunZfVqxqQ3_4pest6parser6ParserNtBg_4RuleE5parse5rules7visible4pace00s_0Bg_
FNDA:2,_RNCNCNCNvNtNtNvXs_Cs68ZmiMsM1DQ_4dashNtBg_10DashParserINtNtCsgunZfVqxqQ3_4pest6parser6ParserNtBg_4RuleE5parse5rules7visible4pace00s0_0Bg_
FNDA:2,_RNCNCNCNvNtNtNvXs_Cs68ZmiMsM1DQ_4dashNtBg_10DashParserINtNtCsgunZfVqxqQ3_4pest6parser6ParserNtBg_4RuleE5parse5rules7visible4pace00s1_0Bg_
FNDA:22,_RNCNvNtNtNvXs_Cs68ZmiMsM1DQ_4dashNtBc_10DashParserINtNtCsgunZfVqxqQ3_4pest6parser6ParserNtBc_4RuleE5parse5rules7visible9pace_time0Bc_
FNDA:22,_RNCNCNvNtNtNvXs_Cs68ZmiMsM1DQ_4dashNtBe_10DashParserINtNtCsgunZfVqxqQ3_4pest6parser6ParserNtBe_4RuleE5parse5rules7visible9pace_time00Be_
FNDA:22,_RNCNCNCNvNtNtNvXs_Cs68ZmiMsM1DQ_4dashNtBg_10DashParserINtNtCsgunZfVqxqQ3_4pest6parser6ParserNtBg_4RuleE5parse5rules7visible9pace_time000Bg_
FNDA:22,_RNCNCNCNCNvNtNtNvXs_Cs68ZmiMsM1DQ_4dashNtBi_10DashParserINtNtCsgunZfVqxqQ3_4pest6parser6ParserNtBi_4RuleE5parse5rules7visible9pace_time0000Bi_
FNDA:18,_RNCNCNCNCNCNvNtNtNvXs_Cs68ZmiMsM1DQ_4dashNtBk_10DashParserINtNtCsgunZfVqxqQ3_4pest6parser6ParserNtBk_4RuleE5parse5rules7visible9pace_time00000Bk_
FNDA:18,_RNCNCNCNCNCNCNvNtNtNvXs_Cs68ZmiMsM1DQ_4dashNtBm_10DashParserINtNtCsgunZfVqxqQ3_4pest6parser6ParserNtBm_4RuleE5parse5rules7visible9pace_time000000Bm_
FNDA:18,_RNCNCNCNCNvNtNtNvXs_Cs68ZmiMsM1DQ_4dashNtBi_10DashParserINtNtCsgunZfVqxqQ3_4pest6parser6ParserNtBi_4RuleE5parse5rules7visible9pace_time000s_0Bi_
FNDA:18,_RNCNCNCNCNvNtNtNvXs_Cs68ZmiMsM1DQ_4dashNtBi_10DashParserINtNtCsgunZfVqxqQ3_4pest6parser6ParserNtBi_4RuleE5parse5rules7visible9pace_time000s0_0Bi_
FNDA:12,_RNCNCNCNCNvNtNtNvXs_Cs68ZmiMsM1DQ_4dashNtBi_10DashParserINtNtCsgunZfVqxqQ3_4pest6parser6ParserNtBi_4RuleE5parse5rules7visible9pace_time000s1_0Bi_
FNDA:56,_RNCNvNtNtNvXs_Cs68ZmiMsM1DQ_4dashNtBc_10DashParserINtNtCsgunZfVqxqQ3_4pest6parser6ParserNtBc_4RuleE5parse5rules7visible4goal0Bc_
FNDA:56,_RNCNvNtNtNvXs_Cs68ZmiMsM1DQ_4dashNtBc_10DashParserINtNtCsgunZfVqxqQ3_4pest6parser6ParserNtBc_4RuleE5parse5rules7visible13distance_goal0Bc_
FNDA:56,_RNCNCNvNtNtNvXs_Cs68ZmiMsM1DQ_4dashNtBe_10DashParserINtNtCsgunZfVqxqQ3_4pest6parser6ParserNtBe_4RuleE5parse5rules7visible13distance_goal00Be_
FNDA:52,_RNCNCNCNvNtNtNvXs_Cs68ZmiMsM1DQ_4dashNtBg_10DashParserINtNtCsgunZfVqxqQ3_4pest6parser6ParserNtBg_4RuleE5parse5rules7visible13distance_goal000Bg_
FNDA:52,_RNCNCNCNvNtNtNvXs_Cs68ZmiMsM1DQ_4dashNtBg_10DashParserINtNtCsgunZfVqxqQ3_4pest6parser6ParserNtBg_4RuleE5parse5rules7visible13distance_goal00s_0Bg_
FNDA:67,_RNCNvNtNtNvXs_Cs68ZmiMsM1DQ_4dashNtBc_10DashParserINtNtCsgunZfVqxqQ3_4pest6parser6ParserNtBc_4RuleE5parse5rules7visible13duration_goal0Bc_
FNDA:67,_RNCNCNvNtNtNvXs_Cs68ZmiMsM1DQ_4dashNtBe_10DashParserINtNtCsgunZfVqxqQ3_4pest6parser6ParserNtBe_4RuleE5parse5rules7visible13duration_goal00Be_
FNDA:63,_RNCNCNCNvNtNtNvXs_Cs68ZmiMsM1DQ_4dashNtBg_10DashParserINtNtCsgunZfVqxqQ3_4pest6parser6ParserNtBg_4RuleE5parse5rules7visible13duration_goal000Bg_
FNDA:63,_RNCNCNCNvNtNtNvXs_Cs68ZmiMsM1DQ_4dashNtBg_10DashParserINtNtCsgunZfVqxqQ3_4pest6parser6ParserNtBg_4RuleE5parse5rules7visible13duration_goal00s_0Bg_
FNDA:17,_RNCNvNtNtNvXs_Cs68ZmiMsM1DQ_4dashNtBc_10DashParserINtNtCsgunZfVqxqQ3_4pest6parser6ParserNtBc_4RuleE5parse5rules7visible11unit_length0Bc_
FNDA:15,_RNCNvNtNtNvXs_Cs68ZmiMsM1DQ_4dashNtBc_10DashParserINtNtCsgunZfVqxqQ3_4pest6parser6ParserNtBc_4RuleE5parse5rules7visible11unit_lengths_0Bc_
FNDA:13,_RNCNvNtNtNvXs_Cs68ZmiMsM1DQ_4dashNtBc_10DashParserINtNtCsgunZfVqxqQ3_4pest6parser6ParserNtBc_4RuleE5parse5rules7visible11unit_lengths0_0Bc_
FNDA:11,_RNCNvNtNtNvXs_Cs68ZmiMsM1DQ_4dashNtBc_10DashParserINtNtCsgunZfVqxqQ3_4pest6parser6ParserNtBc_4RuleE5parse5rules7visible11unit_lengths1_0Bc_
FNDA:56,_RNCNvNtNtNvXs_Cs68ZmiMsM1DQ_4dashNtBc_10DashParserINtNtCsgunZfVqxqQ3_4pest6parser6ParserNtBc_4RuleE5parse5rules7visible5miles0Bc_
FNDA:49,_RNCNCNvNtNtNvXs_Cs68ZmiMsM1DQ_4dashNtBe_10DashParserINtNtCsgunZfVqxqQ3_4pest6parser6ParserNtBe_4RuleE5parse5rules7visible5miles00Be_
FNDA:17,_RNCNCNvNtNtNvXs_Cs68ZmiMsM1DQ_4dashNtBe_10DashParserINtNtCsgunZfVqxqQ3_4pest6parser6ParserNtBe_4RuleE5parse5rules7visible5miles0s_0Be_
FNDA:17,_RNCNvNtNtNvXs_Cs68ZmiMsM1DQ_4dashNtBc_10DashParserINtNtCsgunZfVqxqQ3_4pest6parser6ParserNtBc_4RuleE5parse5rules7visible5yards0Bc_
FNDA:15,_RNCNCNvNtNtNvXs_Cs68ZmiMsM1DQ_4dashNtBe_10DashParserINtNtCsgunZfVqxqQ3_4pest6parser6ParserNtBe_4RuleE5parse5rules7visible5yards00Be_
FNDA:15,_RNCNCNvNtNtNvXs_Cs68ZmiMsM1DQ_4dashNtBe_10DashParserINtNtCsgunZfVqxqQ3_4pest6parser6ParserNtBe_4RuleE5parse5rules7visible5yards0s_0Be_
FNDA:15,_RNCNvNtNtNvXs_Cs68ZmiMsM1DQ_4dashNtBc_10DashParserINtNtCsgunZfVqxqQ3_4pest6parser6ParserNtBc_4RuleE5parse5rules7visible4feet0Bc_
FNDA:13,_RNCNCNvNtNtNvXs_Cs68ZmiMsM1DQ_4dashNtBe_10DashParserINtNtCsgunZfVqxqQ3_4pest6parser6ParserNtBe_4RuleE5parse5rules7visible4feet00Be_
FNDA:13,_RNCNCNvNtNtNvXs_Cs68ZmiMsM1DQ_4dashNtBe_10DashParserINtNtCsgunZfVqxqQ3_4pest6parser6ParserNtBe_4RuleE5parse5rules7visible4feet0s_0Be_
FNDA:13,_RNCNvNtNtNvXs_Cs68ZmiMsM1DQ_4dashNtBc_10DashParserINtNtCsgunZfVqxqQ3_4pest6parser6ParserNtBc_4RuleE5parse5rules7visible5meter0Bc_
FNDA:11,_RNCNCNvNtNtNvXs_Cs68ZmiMsM1DQ_4dashNtBe_10DashParserINtNtCsgunZfVqxqQ3_4pest6parser6ParserNtBe_4RuleE5parse5rules7visible5meter00Be_
FNDA:11,_RNCNCNvNtNtNvXs_Cs68ZmiMsM1DQ_4dashNtBe_10DashParserINtNtCsgunZfVqxqQ3_4pest6parser6ParserNtBe_4RuleE5parse5rules7visible5meter0s_0Be_
FNDA:11,_RNCNvNtNtNvXs_Cs68ZmiMsM1DQ_4dashNtBc_10DashParserINtNtCsgunZfVqxqQ3_4pest6parser6ParserNtBc_4RuleE5parse5rules7visible9kilometer0Bc_
FNDA:11,_RNCNCNvNtNtNvXs_Cs68ZmiMsM1DQ_4dashNtBe_10DashParserINtNtCsgunZfVqxqQ3_4pest6parser6ParserNtBe_4RuleE5parse5rules7visible9kilometer00Be_
FNDA:9,_RNCNCNvNtNtNvXs_Cs68ZmiMsM1DQ_4dashNtBe_10DashParserINtNtCsgunZfVqxqQ3_4pest6parser6ParserNtBe_4RuleE5parse5rules7visible9kilometer0s_0Be_
FNDA:61,_RNCNvNtNtNvXs_Cs68ZmiMsM1DQ_4dashNtBc_10DashParserINtNtCsgunZfVqxqQ3_4pest6parser6ParserNtBc_4RuleE5parse5rules7visible13unit_duration0Bc_
FNDA:54,_RNCNvNtNtNvXs_Cs68ZmiMsM1DQ_4dashNtBc_10DashParserINtNtCsgunZfVqxqQ3_4pest6parser6ParserNtBc_4RuleE5parse5rules7visible13unit_durations_0Bc_
FNDA:63,_RNCNvNtNtNvXs_Cs68ZmiMsM1DQ_4dashNtBc_10DashParserINtNtCsgunZfVqxqQ3_4pest6parser6ParserNtBc_4RuleE5parse5rules7visible7seconds0Bc_
FNDA:61,_RNCNCNvNtNtNvXs_Cs68ZmiMsM1DQ_4dashNtBe_10DashParserINtNtCsgunZfVqxqQ3_4pest6parser6ParserNtBe_4RuleE5parse5rules7visible7seconds00Be_
FNDA:61,_RNCNCNvNtNtNvXs_Cs68ZmiMsM1DQ_4dashNtBe_10DashParserINtNtCsgunZfVqxqQ3_4pest6parser6ParserNtBe_4RuleE5parse5rules7visible7seconds0s_0Be_
FNDA:61,_RNCNvNtNtNvXs_Cs68ZmiMsM1DQ_4dashNtBc_10DashParserINtNtCsgunZfVqxqQ3_4pest6parser6ParserNtBc_4RuleE5parse5rules7visible7minutes0Bc_
FNDA:54,_RNCNCNvNtNtNvXs_Cs68ZmiMsM1DQ_4dashNtBe_10DashParserINtNtCsgunZfVqxqQ3_4pest6parser6ParserNtBe_4RuleE5parse5rules7visible7minutes00Be_
FNDA:54,_RNCNCNvNtNtNvXs_Cs68ZmiMsM1DQ_4dashNtBe_10DashParserINtNtCsgunZfVqxqQ3_4pest6parser6ParserNtBe_4RuleE5parse5rules7visible7minutes0s_0Be_
FNDA:54,_RNCNvNtNtNvXs_Cs68ZmiMsM1DQ_4dashNtBc_10DashParserINtNtCsgunZfVqxqQ3_4pest6parser6ParserNtBc_4RuleE5parse5rules7visible5hours0Bc_
FNDA:54,_RNCNCNvNtNtNvXs_Cs68ZmiMsM1DQ_4dashNtBe_10DashParserINtNtCsgunZfVqxqQ3_4pest6parser6ParserNtBe_4RuleE5parse5rules7visible5hours00Be_
FNDA:52,_RNCNCNvNtNtNvXs_Cs68ZmiMsM1DQ_4dashNtBe_10DashParserINtNtCsgunZfVqxqQ3_4pest6parser6ParserNtBe_4RuleE5parse5rules7visible5hours0s_0Be_
FNDA:131,_RNCNvNtNtNvXs_Cs68ZmiMsM1DQ_4dashNtBc_10DashParserINtNtCsgunZfVqxqQ3_4pest6parser6ParserNtBc_4RuleE5parse5rules7visible6number0Bc_
FNDA:131,_RNCNCNvNtNtNvXs_Cs68ZmiMsM1DQ_4dashNtBe_10DashParserINtNtCsgunZfVqxqQ3_4pest6parser6ParserNtBe_4RuleE5parse5rules7visible6number00Be_
FNDA:131,_RNCNCNCNvNtNtNvXs_Cs68ZmiMsM1DQ_4dashNtBg_10DashParserINtNtCsgunZfVqxqQ3_4pest6parser6ParserNtBg_4RuleE5parse5rules7visible6number000Bg_
FNDA:131,_RNCNCNCNCNvNtNtNvXs_Cs68ZmiMsM1DQ_4dashNtBi_10DashParserINtNtCsgunZfVqxqQ3_4pest6parser6ParserNtBi_4RuleE5parse5rules7visible6number0000Bi_
FNDA:121,_RNCNCNCNCNCNvNtNtNvXs_Cs68ZmiMsM1DQ_4dashNtBk_10DashParserINtNtCsgunZfVqxqQ3_4pest6parser6ParserNtBk_4RuleE5parse5rules7visible6number00000Bk_
FNDA:158,_RNCNCNCNCNCNCNvNtNtNvXs_Cs68ZmiMsM1DQ_4dashNtBm_10DashParserINtNtCsgunZfVqxqQ3_4pest6parser6ParserNtBm_4RuleE5parse5rules7visible6number000000Bm_
FNDA:121,_RNCNCNCNCNvNtNtNvXs_Cs68ZmiMsM1DQ_4dashNtBi_10DashParserINtNtCsgunZfVqxqQ3_4pest6parser6ParserNtBi_4RuleE5parse5rules7visible6number000s_0Bi_
FNDA:121,_RNCNCNCNCNCNvNtNtNvXs_Cs68ZmiMsM1DQ_4dashNtBk_10DashParserINtNtCsgunZfVqxqQ3_4pest6parser6ParserNtBk_4RuleE5parse5rules7visible6number000s_00Bk_
FNDA:121,_RNCNCNCNCNCNCNvNtNtNvXs_Cs68ZmiMsM1DQ_4dashNtBm_10DashParserINtNtCsgunZfVqxqQ3_4pest6parser6ParserNtBm_4RuleE5parse5rules7visible6number000s_000Bm_
FNDA:14,_RNCNCNCNCNCNCNCNvNtNtNvXs_Cs68ZmiMsM1DQ_4dashNtBo_10DashParserINtNtCsgunZfVqxqQ3_4pest6parser6ParserNtBo_4RuleE5parse5rules7visible6number000s_0000Bo_
FNDA:14,_RNCNCNCNCNCNCNCNvNtNtNvXs_Cs68ZmiMsM1DQ_4dashNtBo_10DashParserINtNtCsgunZfVqxqQ3_4pest6parser6ParserNtBo_4RuleE5parse5rules7visible6number000s_000s_0Bo_
FNDA:14,_RNCNCNCNCNCNCNCNCNvNtNtNvXs_Cs68ZmiMsM1DQ_4dashNtBq_10DashParserINtNtCsgunZfVqxqQ3_4pest6parser6ParserNtBq_4RuleE5parse5rules7visible6number000s_000s_00Bq_
FNDA:12,_RNCNvNtNtNvXs_Cs68ZmiMsM1DQ_4dashNtBc_10DashParserINtNtCsgunZfVqxqQ3_4pest6parser6ParserNtBc_4RuleE5parse5rules7visible3EOI0Bc_
FNDA:15,_RNCNvXs_Cs68ZmiMsM1DQ_4dashNtB6_10DashParserINtNtCsgunZfVqxqQ3_4pest6parser6ParserNtB6_4RuleE5parse0B6_
FNDA:1,_RNvNtCs68ZmiMsM1DQ_4dash5testss_18test_parse_workout
FNDA:1,_RNvNtCs68ZmiMsM1DQ_4dash5testss_42test_parse_workout_without_warmup_cooldown
FNDA:1,_RNvNtCs68ZmiMsM1DQ_4dash5testss_37test_parse_workout_with_duration_goal
FNDA:1,_RNvNtCs68ZmiMsM1DQ_4dash5testss_38test_parse_workout_with_pace_threshold
FNDA:1,_RNvNtCs68ZmiMsM1DQ_4dash5testss_34test_parse_workout_with_pace_range
FNDA:1,_RNvNtCs68ZmiMsM1DQ_4dash5testss_44test_parse_workout_with_all_heart_rate_zones
FNDA:1,_RNvNtCs68ZmiMsM1DQ_4dash5testss_46test_parse_workout_with_different_length_units
FNDA:1,_RNvNtCs68ZmiMsM1DQ_4dash5testss_44test_parse_workout_with_different_time_units
FNDA:1,_RNvNtCs68ZmiMsM1DQ_4dash5testss_42test_parse_workout_with_multiple_intervals
FNDA:1,_RNvNtCs68ZmiMsM1DQ_4dash5testss_37test_parse_workout_with_invalid_input
FNF:23
FNH:23
DA:16,5384
DA:20,15
DA:21,15
DA:23,9
DA:24,9
DA:25,9
DA:28,24
DA:29,24
DA:31,3
DA:34,3
DA:37,9
DA:38,9
DA:40,9
DA:41,0
DA:45,9
DA:46,9
DA:47,9
DA:48,9
DA:49,9
DA:50,15
DA:52,30
DA:53,30
DA:54,30
DA:55,30
DA:56,30
DA:58,42
DA:59,42
DA:60,23
DA:61,23
DA:62,23
DA:63,23
DA:64,23
DA:65,23
DA:66,7
DA:67,7
DA:68,7
DA:69,7
DA:70,7
DA:71,7
DA:72,10
DA:73,10
DA:74,10
DA:75,10
DA:76,10
DA:78,1
DA:79,1
DA:80,1
DA:83,1
DA:85,0
DA:89,30
DA:90,30
DA:91,30
DA:92,30
DA:93,30
DA:95,9
DA:96,9
DA:97,9
DA:98,9
DA:99,29
DA:100,20
DA:102,20
DA:104,0
DA:107,9
DA:108,9
DA:110,20
DA:111,20
DA:112,20
DA:113,20
DA:114,20
DA:115,20
DA:116,20
DA:117,20
DA:118,20
DA:119,5
DA:120,5
DA:121,9
DA:122,9
DA:125,15
DA:128,20
DA:129,20
DA:131,24
DA:132,24
DA:133,24
DA:134,24
DA:135,24
DA:136,24
DA:137,24
DA:138,24
DA:139,24
DA:141,3
DA:142,3
DA:143,3
DA:144,3
DA:145,3
DA:146,3
DA:147,3
DA:149,1
DA:150,1
DA:151,1
DA:152,1
DA:153,1
DA:154,1
DA:155,1
DA:156,1
DA:157,1
DA:158,1
DA:159,1
DA:160,1
DA:161,1
DA:164,1
DA:166,1
DA:167,1
DA:168,1
DA:169,1
DA:171,1
DA:173,1
DA:174,1
DA:175,1
DA:176,1
DA:177,1
DA:179,25
DA:180,25
DA:181,21
DA:182,1
DA:183,1
DA:184,1
DA:185,1
DA:186,0
DA:188,25
DA:190,7
DA:191,7
DA:192,1
DA:193,5
DA:194,1
DA:195,0
DA:197,7
DA:199,10
DA:200,10
DA:201,1
DA:202,1
DA:203,4
DA:204,3
DA:205,1
DA:206,0
DA:208,10
DA:215,1
DA:216,1
DA:217,1
DA:218,1
DA:220,1
DA:221,1
DA:222,1
DA:223,1
DA:226,1
DA:227,1
DA:228,1
DA:231,1
DA:232,1
DA:233,0
DA:236,1
DA:237,1
DA:240,1
DA:241,1
DA:242,1
DA:243,1
DA:245,1
DA:246,1
DA:247,1
DA:248,1
DA:249,1
DA:252,1
DA:253,1
DA:254,1
DA:255,1
DA:256,1
DA:258,1
DA:259,1
DA:260,1
DA:261,1
DA:262,1
DA:263,1
DA:265,0
DA:267,1
DA:270,1
DA:271,1
DA:272,1
DA:273,1
DA:275,1
DA:276,1
DA:277,1
DA:278,1
DA:279,1
DA:280,1
DA:282,0
DA:284,1
DA:287,1
DA:288,1
DA:289,1
DA:290,1
DA:292,1
DA:293,1
DA:294,1
DA:295,1
DA:296,1
DA:297,1
DA:298,1
DA:299,1
DA:301,0
DA:303,1
DA:306,1
DA:307,1
DA:308,1
DA:309,1
DA:311,1
DA:312,1
DA:314,1
DA:315,1
DA:316,1
DA:317,1
DA:318,1
DA:319,1
DA:320,1
DA:322,5
DA:323,5
DA:324,5
DA:325,0
DA:328,1
DA:331,1
DA:332,1
DA:333,1
DA:334,1
DA:336,1
DA:337,1
DA:339,1
DA:340,1
DA:341,1
DA:342,1
DA:343,1
DA:344,1
DA:345,1
DA:347,5
DA:348,5
DA:349,5
DA:350,0
DA:353,1
DA:356,1
DA:357,1
DA:358,1
DA:359,1
DA:361,1
DA:362,1
DA:364,1
DA:366,3
DA:367,3
DA:368,3
DA:369,0
DA:372,1
DA:375,1
DA:376,1
DA:377,1
DA:378,1
DA:380,1
DA:381,1
DA:384,1
DA:385,1
DA:386,1
DA:387,1
DA:388,1
DA:389,0
DA:393,1
DA:394,1
DA:395,1
DA:396,1
DA:397,1
DA:398,0
DA:400,1
DA:403,1
DA:404,1
DA:405,1
DA:406,1
DA:407,1
DA:408,1
DA:409,1
DA:410,1
DA:411,1
DA:413,7
DA:414,6
DA:415,6
DA:417,1
BRF:0
BRH:0
LF:290
LH:275
end_of_record